

Microchip Technology PIC LITE Macro Assembler V1.12 build 49521 
                                                                                               Thu Jan  3 01:26:05 2013

HI-TECH Software Omniscient Code Generator (Lite mode) build 49521
     1  0000                     opt subtitle "HI-TECH Software Omniscient Code Generator (Lite mode) build 49521"
     2                           opt subtitle "HI-TECH Software Omniscient Code Generator (Lite mode) build 49521"
     3                           
     4                           opt pagewidth 120
     5                           
     6                           	opt lm
     7                           
     8                           	processor	16F886
     9                           clrc	macro
    10  0000                     	endm
    11                           opt subtitle "HI-TECH Software Omniscient Code Generator (Lite mode) build 49521"
    12                           
    13  0000                     	endm
    14                           opt subtitle "HI-TECH Software Omniscient Code Generator (Lite mode) build 49521"
    15                           
    16  0000                     	endm
    17                           opt subtitle "HI-TECH Software Omniscient Code Generator (Lite mode) build 49521"
    18                           
    19  0000                     	endm
    20                           opt subtitle "HI-TECH Software Omniscient Code Generator (Lite mode) build 49521"
    21                           
    22  0000                     	endm
    23                           opt subtitle "HI-TECH Software Omniscient Code Generator (Lite mode) build 49521"
    24                           
    25  0000                     	endm
    26                           opt subtitle "HI-TECH Software Omniscient Code Generator (Lite mode) build 49521"
    27                           
    28  0000                     	endm
    29                           opt subtitle "HI-TECH Software Omniscient Code Generator (Lite mode) build 49521"
    30                           
    31  0000                     	endm
    32  0000                     indf	equ	0
    33  0000                     indf0	equ	0
    34  0002                     pc	equ	2
    35  0002                     pcl	equ	2
    36  0003                     status	equ	3
    37  0004                     fsr	equ	4
    38  0004                     fsr0	equ	4
    39  0001                     c	equ	1
    40  0000                     z	equ	0
    41  000A                     pclath	equ	10
    42                           opt subtitle "HI-TECH Software Omniscient Code Generator (Lite mode) build 49521"
    43  0000                     INDF equ 00h ;# 
    44                           opt subtitle "HI-TECH Software Omniscient Code Generator (Lite mode) build 49521"
    45  0001                     TMR0 equ 01h ;# 
    46                           opt subtitle "HI-TECH Software Omniscient Code Generator (Lite mode) build 49521"
    47  0002                     PCL equ 02h ;# 
    48                           opt subtitle "HI-TECH Software Omniscient Code Generator (Lite mode) build 49521"
    49  0003                     STATUS equ 03h ;# 
    50                           opt subtitle "HI-TECH Software Omniscient Code Generator (Lite mode) build 49521"
    51  0004                     FSR equ 04h ;# 
    52                           opt subtitle "HI-TECH Software Omniscient Code Generator (Lite mode) build 49521"
    53  0005                     PORTA equ 05h ;# 
    54                           opt subtitle "HI-TECH Software Omniscient Code Generator (Lite mode) build 49521"
    55  0006                     PORTB equ 06h ;# 
    56                           opt subtitle "HI-TECH Software Omniscient Code Generator (Lite mode) build 49521"
    57  0007                     PORTC equ 07h ;# 
    58                           opt subtitle "HI-TECH Software Omniscient Code Generator (Lite mode) build 49521"
    59  0009                     PORTE equ 09h ;# 
    60                           opt subtitle "HI-TECH Software Omniscient Code Generator (Lite mode) build 49521"
    61  000A                     PCLATH equ 0Ah ;# 
    62                           opt subtitle "HI-TECH Software Omniscient Code Generator (Lite mode) build 49521"
    63  000B                     INTCON equ 0Bh ;# 
    64                           opt subtitle "HI-TECH Software Omniscient Code Generator (Lite mode) build 49521"
    65  000C                     PIR1 equ 0Ch ;# 
    66                           opt subtitle "HI-TECH Software Omniscient Code Generator (Lite mode) build 49521"
    67  000D                     PIR2 equ 0Dh ;# 
    68                           opt subtitle "HI-TECH Software Omniscient Code Generator (Lite mode) build 49521"
    69  000E                     TMR1 equ 0Eh ;# 
    70                           opt subtitle "HI-TECH Software Omniscient Code Generator (Lite mode) build 49521"
    71  000E                     TMR1L equ 0Eh ;# 
    72                           opt subtitle "HI-TECH Software Omniscient Code Generator (Lite mode) build 49521"
    73  000F                     TMR1H equ 0Fh ;# 
    74                           opt subtitle "HI-TECH Software Omniscient Code Generator (Lite mode) build 49521"
    75  0010                     T1CON equ 010h ;# 
    76                           opt subtitle "HI-TECH Software Omniscient Code Generator (Lite mode) build 49521"
    77  0011                     TMR2 equ 011h ;# 
    78                           opt subtitle "HI-TECH Software Omniscient Code Generator (Lite mode) build 49521"
    79  0012                     T2CON equ 012h ;# 
    80                           opt subtitle "HI-TECH Software Omniscient Code Generator (Lite mode) build 49521"
    81  0013                     SSPBUF equ 013h ;# 
    82                           opt subtitle "HI-TECH Software Omniscient Code Generator (Lite mode) build 49521"
    83  0014                     SSPCON equ 014h ;# 
    84                           opt subtitle "HI-TECH Software Omniscient Code Generator (Lite mode) build 49521"
    85  0015                     CCPR1 equ 015h ;# 
    86                           opt subtitle "HI-TECH Software Omniscient Code Generator (Lite mode) build 49521"
    87  0015                     CCPR1L equ 015h ;# 
    88                           opt subtitle "HI-TECH Software Omniscient Code Generator (Lite mode) build 49521"
    89  0016                     CCPR1H equ 016h ;# 
    90                           opt subtitle "HI-TECH Software Omniscient Code Generator (Lite mode) build 49521"
    91  0017                     CCP1CON equ 017h ;# 
    92                           opt subtitle "HI-TECH Software Omniscient Code Generator (Lite mode) build 49521"
    93  0018                     RCSTA equ 018h ;# 
    94                           opt subtitle "HI-TECH Software Omniscient Code Generator (Lite mode) build 49521"
    95  0019                     TXREG equ 019h ;# 
    96                           opt subtitle "HI-TECH Software Omniscient Code Generator (Lite mode) build 49521"
    97  001A                     RCREG equ 01Ah ;# 
    98                           opt subtitle "HI-TECH Software Omniscient Code Generator (Lite mode) build 49521"
    99  001B                     CCPR2 equ 01Bh ;# 
   100                           opt subtitle "HI-TECH Software Omniscient Code Generator (Lite mode) build 49521"
   101  001B                     CCPR2L equ 01Bh ;# 
   102                           opt subtitle "HI-TECH Software Omniscient Code Generator (Lite mode) build 49521"
   103  001C                     CCPR2H equ 01Ch ;# 
   104                           opt subtitle "HI-TECH Software Omniscient Code Generator (Lite mode) build 49521"
   105  001D                     CCP2CON equ 01Dh ;# 
   106                           opt subtitle "HI-TECH Software Omniscient Code Generator (Lite mode) build 49521"
   107  001E                     ADRESH equ 01Eh ;# 
   108                           opt subtitle "HI-TECH Software Omniscient Code Generator (Lite mode) build 49521"
   109  001F                     ADCON0 equ 01Fh ;# 
   110                           opt subtitle "HI-TECH Software Omniscient Code Generator (Lite mode) build 49521"
   111  0081                     OPTION_REG equ 081h ;# 
   112                           opt subtitle "HI-TECH Software Omniscient Code Generator (Lite mode) build 49521"
   113  0085                     TRISA equ 085h ;# 
   114                           opt subtitle "HI-TECH Software Omniscient Code Generator (Lite mode) build 49521"
   115  0086                     TRISB equ 086h ;# 
   116                           opt subtitle "HI-TECH Software Omniscient Code Generator (Lite mode) build 49521"
   117  0087                     TRISC equ 087h ;# 
   118                           opt subtitle "HI-TECH Software Omniscient Code Generator (Lite mode) build 49521"
   119  0089                     TRISE equ 089h ;# 
   120                           opt subtitle "HI-TECH Software Omniscient Code Generator (Lite mode) build 49521"
   121  008C                     PIE1 equ 08Ch ;# 
   122                           opt subtitle "HI-TECH Software Omniscient Code Generator (Lite mode) build 49521"
   123  008D                     PIE2 equ 08Dh ;# 
   124                           opt subtitle "HI-TECH Software Omniscient Code Generator (Lite mode) build 49521"
   125  008E                     PCON equ 08Eh ;# 
   126                           opt subtitle "HI-TECH Software Omniscient Code Generator (Lite mode) build 49521"
   127  008F                     OSCCON equ 08Fh ;# 
   128                           opt subtitle "HI-TECH Software Omniscient Code Generator (Lite mode) build 49521"
   129  0090                     OSCTUNE equ 090h ;# 
   130                           opt subtitle "HI-TECH Software Omniscient Code Generator (Lite mode) build 49521"
   131  0091                     SSPCON2 equ 091h ;# 
   132                           opt subtitle "HI-TECH Software Omniscient Code Generator (Lite mode) build 49521"
   133  0092                     PR2 equ 092h ;# 
   134                           opt subtitle "HI-TECH Software Omniscient Code Generator (Lite mode) build 49521"
   135  0093                     SSPADD equ 093h ;# 
   136                           opt subtitle "HI-TECH Software Omniscient Code Generator (Lite mode) build 49521"
   137  0093                     SSPMSK equ 093h ;# 
   138                           opt subtitle "HI-TECH Software Omniscient Code Generator (Lite mode) build 49521"
   139  0093                     MSK equ 093h ;# 
   140                           opt subtitle "HI-TECH Software Omniscient Code Generator (Lite mode) build 49521"
   141  0094                     SSPSTAT equ 094h ;# 
   142                           opt subtitle "HI-TECH Software Omniscient Code Generator (Lite mode) build 49521"
   143  0095                     WPUB equ 095h ;# 
   144                           opt subtitle "HI-TECH Software Omniscient Code Generator (Lite mode) build 49521"
   145  0096                     IOCB equ 096h ;# 
   146                           opt subtitle "HI-TECH Software Omniscient Code Generator (Lite mode) build 49521"
   147  0097                     VRCON equ 097h ;# 
   148                           opt subtitle "HI-TECH Software Omniscient Code Generator (Lite mode) build 49521"
   149  0098                     TXSTA equ 098h ;# 
   150                           opt subtitle "HI-TECH Software Omniscient Code Generator (Lite mode) build 49521"
   151  0099                     SPBRG equ 099h ;# 
   152                           opt subtitle "HI-TECH Software Omniscient Code Generator (Lite mode) build 49521"
   153  009A                     SPBRGH equ 09Ah ;# 
   154                           opt subtitle "HI-TECH Software Omniscient Code Generator (Lite mode) build 49521"
   155  009B                     PWM1CON equ 09Bh ;# 
   156                           opt subtitle "HI-TECH Software Omniscient Code Generator (Lite mode) build 49521"
   157  009C                     ECCPAS equ 09Ch ;# 
   158                           opt subtitle "HI-TECH Software Omniscient Code Generator (Lite mode) build 49521"
   159  009D                     PSTRCON equ 09Dh ;# 
   160                           opt subtitle "HI-TECH Software Omniscient Code Generator (Lite mode) build 49521"
   161  009E                     ADRESL equ 09Eh ;# 
   162                           opt subtitle "HI-TECH Software Omniscient Code Generator (Lite mode) build 49521"
   163  009F                     ADCON1 equ 09Fh ;# 
   164                           opt subtitle "HI-TECH Software Omniscient Code Generator (Lite mode) build 49521"
   165  0105                     WDTCON equ 0105h ;# 
   166                           opt subtitle "HI-TECH Software Omniscient Code Generator (Lite mode) build 49521"
   167  0107                     CM1CON0 equ 0107h ;# 
   168                           opt subtitle "HI-TECH Software Omniscient Code Generator (Lite mode) build 49521"
   169  0108                     CM2CON0 equ 0108h ;# 
   170                           opt subtitle "HI-TECH Software Omniscient Code Generator (Lite mode) build 49521"
   171  0109                     CM2CON1 equ 0109h ;# 
   172                           opt subtitle "HI-TECH Software Omniscient Code Generator (Lite mode) build 49521"
   173  010C                     EEDATA equ 010Ch ;# 
   174                           opt subtitle "HI-TECH Software Omniscient Code Generator (Lite mode) build 49521"
   175  010C                     EEDAT equ 010Ch ;# 
   176                           opt subtitle "HI-TECH Software Omniscient Code Generator (Lite mode) build 49521"
   177  010D                     EEADR equ 010Dh ;# 
   178                           opt subtitle "HI-TECH Software Omniscient Code Generator (Lite mode) build 49521"
   179  010E                     EEDATH equ 010Eh ;# 
   180                           opt subtitle "HI-TECH Software Omniscient Code Generator (Lite mode) build 49521"
   181  010F                     EEADRH equ 010Fh ;# 
   182                           opt subtitle "HI-TECH Software Omniscient Code Generator (Lite mode) build 49521"
   183  0185                     SRCON equ 0185h ;# 
   184                           opt subtitle "HI-TECH Software Omniscient Code Generator (Lite mode) build 49521"
   185  0187                     BAUDCTL equ 0187h ;# 
   186                           opt subtitle "HI-TECH Software Omniscient Code Generator (Lite mode) build 49521"
   187  0188                     ANSEL equ 0188h ;# 
   188                           opt subtitle "HI-TECH Software Omniscient Code Generator (Lite mode) build 49521"
   189  0189                     ANSELH equ 0189h ;# 
   190                           opt subtitle "HI-TECH Software Omniscient Code Generator (Lite mode) build 49521"
   191  018C                     EECON1 equ 018Ch ;# 
   192                           opt subtitle "HI-TECH Software Omniscient Code Generator (Lite mode) build 49521"
   193  018D                     EECON2 equ 018Dh ;# 
   194                           opt subtitle "HI-TECH Software Omniscient Code Generator (Lite mode) build 49521"
   195  0000                     INDF equ 00h ;# 
   196                           opt subtitle "HI-TECH Software Omniscient Code Generator (Lite mode) build 49521"
   197  0001                     TMR0 equ 01h ;# 
   198                           opt subtitle "HI-TECH Software Omniscient Code Generator (Lite mode) build 49521"
   199  0002                     PCL equ 02h ;# 
   200                           opt subtitle "HI-TECH Software Omniscient Code Generator (Lite mode) build 49521"
   201  0003                     STATUS equ 03h ;# 
   202                           opt subtitle "HI-TECH Software Omniscient Code Generator (Lite mode) build 49521"
   203  0004                     FSR equ 04h ;# 
   204                           opt subtitle "HI-TECH Software Omniscient Code Generator (Lite mode) build 49521"
   205  0005                     PORTA equ 05h ;# 
   206                           opt subtitle "HI-TECH Software Omniscient Code Generator (Lite mode) build 49521"
   207  0006                     PORTB equ 06h ;# 
   208                           opt subtitle "HI-TECH Software Omniscient Code Generator (Lite mode) build 49521"
   209  0007                     PORTC equ 07h ;# 
   210                           opt subtitle "HI-TECH Software Omniscient Code Generator (Lite mode) build 49521"
   211  0009                     PORTE equ 09h ;# 
   212                           opt subtitle "HI-TECH Software Omniscient Code Generator (Lite mode) build 49521"
   213  000A                     PCLATH equ 0Ah ;# 
   214                           opt subtitle "HI-TECH Software Omniscient Code Generator (Lite mode) build 49521"
   215  000B                     INTCON equ 0Bh ;# 
   216                           opt subtitle "HI-TECH Software Omniscient Code Generator (Lite mode) build 49521"
   217  000C                     PIR1 equ 0Ch ;# 
   218                           opt subtitle "HI-TECH Software Omniscient Code Generator (Lite mode) build 49521"
   219  000D                     PIR2 equ 0Dh ;# 
   220                           opt subtitle "HI-TECH Software Omniscient Code Generator (Lite mode) build 49521"
   221  000E                     TMR1 equ 0Eh ;# 
   222                           opt subtitle "HI-TECH Software Omniscient Code Generator (Lite mode) build 49521"
   223  000E                     TMR1L equ 0Eh ;# 
   224                           opt subtitle "HI-TECH Software Omniscient Code Generator (Lite mode) build 49521"
   225  000F                     TMR1H equ 0Fh ;# 
   226                           opt subtitle "HI-TECH Software Omniscient Code Generator (Lite mode) build 49521"
   227  0010                     T1CON equ 010h ;# 
   228                           opt subtitle "HI-TECH Software Omniscient Code Generator (Lite mode) build 49521"
   229  0011                     TMR2 equ 011h ;# 
   230                           opt subtitle "HI-TECH Software Omniscient Code Generator (Lite mode) build 49521"
   231  0012                     T2CON equ 012h ;# 
   232                           opt subtitle "HI-TECH Software Omniscient Code Generator (Lite mode) build 49521"
   233  0013                     SSPBUF equ 013h ;# 
   234                           opt subtitle "HI-TECH Software Omniscient Code Generator (Lite mode) build 49521"
   235  0014                     SSPCON equ 014h ;# 
   236                           opt subtitle "HI-TECH Software Omniscient Code Generator (Lite mode) build 49521"
   237  0015                     CCPR1 equ 015h ;# 
   238                           opt subtitle "HI-TECH Software Omniscient Code Generator (Lite mode) build 49521"
   239  0015                     CCPR1L equ 015h ;# 
   240                           opt subtitle "HI-TECH Software Omniscient Code Generator (Lite mode) build 49521"
   241  0016                     CCPR1H equ 016h ;# 
   242                           opt subtitle "HI-TECH Software Omniscient Code Generator (Lite mode) build 49521"
   243  0017                     CCP1CON equ 017h ;# 
   244                           opt subtitle "HI-TECH Software Omniscient Code Generator (Lite mode) build 49521"
   245  0018                     RCSTA equ 018h ;# 
   246                           opt subtitle "HI-TECH Software Omniscient Code Generator (Lite mode) build 49521"
   247  0019                     TXREG equ 019h ;# 
   248                           opt subtitle "HI-TECH Software Omniscient Code Generator (Lite mode) build 49521"
   249  001A                     RCREG equ 01Ah ;# 
   250                           opt subtitle "HI-TECH Software Omniscient Code Generator (Lite mode) build 49521"
   251  001B                     CCPR2 equ 01Bh ;# 
   252                           opt subtitle "HI-TECH Software Omniscient Code Generator (Lite mode) build 49521"
   253  001B                     CCPR2L equ 01Bh ;# 
   254                           opt subtitle "HI-TECH Software Omniscient Code Generator (Lite mode) build 49521"
   255  001C                     CCPR2H equ 01Ch ;# 
   256                           opt subtitle "HI-TECH Software Omniscient Code Generator (Lite mode) build 49521"
   257  001D                     CCP2CON equ 01Dh ;# 
   258                           opt subtitle "HI-TECH Software Omniscient Code Generator (Lite mode) build 49521"
   259  001E                     ADRESH equ 01Eh ;# 
   260                           opt subtitle "HI-TECH Software Omniscient Code Generator (Lite mode) build 49521"
   261  001F                     ADCON0 equ 01Fh ;# 
   262                           opt subtitle "HI-TECH Software Omniscient Code Generator (Lite mode) build 49521"
   263  0081                     OPTION_REG equ 081h ;# 
   264                           opt subtitle "HI-TECH Software Omniscient Code Generator (Lite mode) build 49521"
   265  0085                     TRISA equ 085h ;# 
   266                           opt subtitle "HI-TECH Software Omniscient Code Generator (Lite mode) build 49521"
   267  0086                     TRISB equ 086h ;# 
   268                           opt subtitle "HI-TECH Software Omniscient Code Generator (Lite mode) build 49521"
   269  0087                     TRISC equ 087h ;# 
   270                           opt subtitle "HI-TECH Software Omniscient Code Generator (Lite mode) build 49521"
   271  0089                     TRISE equ 089h ;# 
   272                           opt subtitle "HI-TECH Software Omniscient Code Generator (Lite mode) build 49521"
   273  008C                     PIE1 equ 08Ch ;# 
   274                           opt subtitle "HI-TECH Software Omniscient Code Generator (Lite mode) build 49521"
   275  008D                     PIE2 equ 08Dh ;# 
   276                           opt subtitle "HI-TECH Software Omniscient Code Generator (Lite mode) build 49521"
   277  008E                     PCON equ 08Eh ;# 
   278                           opt subtitle "HI-TECH Software Omniscient Code Generator (Lite mode) build 49521"
   279  008F                     OSCCON equ 08Fh ;# 
   280                           opt subtitle "HI-TECH Software Omniscient Code Generator (Lite mode) build 49521"
   281  0090                     OSCTUNE equ 090h ;# 
   282                           opt subtitle "HI-TECH Software Omniscient Code Generator (Lite mode) build 49521"
   283  0091                     SSPCON2 equ 091h ;# 
   284                           opt subtitle "HI-TECH Software Omniscient Code Generator (Lite mode) build 49521"
   285  0092                     PR2 equ 092h ;# 
   286                           opt subtitle "HI-TECH Software Omniscient Code Generator (Lite mode) build 49521"
   287  0093                     SSPADD equ 093h ;# 
   288                           opt subtitle "HI-TECH Software Omniscient Code Generator (Lite mode) build 49521"
   289  0093                     SSPMSK equ 093h ;# 
   290                           opt subtitle "HI-TECH Software Omniscient Code Generator (Lite mode) build 49521"
   291  0093                     MSK equ 093h ;# 
   292                           opt subtitle "HI-TECH Software Omniscient Code Generator (Lite mode) build 49521"
   293  0094                     SSPSTAT equ 094h ;# 
   294                           opt subtitle "HI-TECH Software Omniscient Code Generator (Lite mode) build 49521"
   295  0095                     WPUB equ 095h ;# 
   296                           opt subtitle "HI-TECH Software Omniscient Code Generator (Lite mode) build 49521"
   297  0096                     IOCB equ 096h ;# 
   298                           opt subtitle "HI-TECH Software Omniscient Code Generator (Lite mode) build 49521"
   299  0097                     VRCON equ 097h ;# 
   300                           opt subtitle "HI-TECH Software Omniscient Code Generator (Lite mode) build 49521"
   301  0098                     TXSTA equ 098h ;# 
   302                           opt subtitle "HI-TECH Software Omniscient Code Generator (Lite mode) build 49521"
   303  0099                     SPBRG equ 099h ;# 
   304                           opt subtitle "HI-TECH Software Omniscient Code Generator (Lite mode) build 49521"
   305  009A                     SPBRGH equ 09Ah ;# 
   306                           opt subtitle "HI-TECH Software Omniscient Code Generator (Lite mode) build 49521"
   307  009B                     PWM1CON equ 09Bh ;# 
   308                           opt subtitle "HI-TECH Software Omniscient Code Generator (Lite mode) build 49521"
   309  009C                     ECCPAS equ 09Ch ;# 
   310                           opt subtitle "HI-TECH Software Omniscient Code Generator (Lite mode) build 49521"
   311  009D                     PSTRCON equ 09Dh ;# 
   312                           opt subtitle "HI-TECH Software Omniscient Code Generator (Lite mode) build 49521"
   313  009E                     ADRESL equ 09Eh ;# 
   314                           opt subtitle "HI-TECH Software Omniscient Code Generator (Lite mode) build 49521"
   315  009F                     ADCON1 equ 09Fh ;# 
   316                           opt subtitle "HI-TECH Software Omniscient Code Generator (Lite mode) build 49521"
   317  0105                     WDTCON equ 0105h ;# 
   318                           opt subtitle "HI-TECH Software Omniscient Code Generator (Lite mode) build 49521"
   319  0107                     CM1CON0 equ 0107h ;# 
   320                           opt subtitle "HI-TECH Software Omniscient Code Generator (Lite mode) build 49521"
   321  0108                     CM2CON0 equ 0108h ;# 
   322                           opt subtitle "HI-TECH Software Omniscient Code Generator (Lite mode) build 49521"
   323  0109                     CM2CON1 equ 0109h ;# 
   324                           opt subtitle "HI-TECH Software Omniscient Code Generator (Lite mode) build 49521"
   325  010C                     EEDATA equ 010Ch ;# 
   326                           opt subtitle "HI-TECH Software Omniscient Code Generator (Lite mode) build 49521"
   327  010C                     EEDAT equ 010Ch ;# 
   328                           opt subtitle "HI-TECH Software Omniscient Code Generator (Lite mode) build 49521"
   329  010D                     EEADR equ 010Dh ;# 
   330                           opt subtitle "HI-TECH Software Omniscient Code Generator (Lite mode) build 49521"
   331  010E                     EEDATH equ 010Eh ;# 
   332                           opt subtitle "HI-TECH Software Omniscient Code Generator (Lite mode) build 49521"
   333  010F                     EEADRH equ 010Fh ;# 
   334                           opt subtitle "HI-TECH Software Omniscient Code Generator (Lite mode) build 49521"
   335  0185                     SRCON equ 0185h ;# 
   336                           opt subtitle "HI-TECH Software Omniscient Code Generator (Lite mode) build 49521"
   337  0187                     BAUDCTL equ 0187h ;# 
   338                           opt subtitle "HI-TECH Software Omniscient Code Generator (Lite mode) build 49521"
   339  0188                     ANSEL equ 0188h ;# 
   340                           opt subtitle "HI-TECH Software Omniscient Code Generator (Lite mode) build 49521"
   341  0189                     ANSELH equ 0189h ;# 
   342                           opt subtitle "HI-TECH Software Omniscient Code Generator (Lite mode) build 49521"
   343  018C                     EECON1 equ 018Ch ;# 
   344                           opt subtitle "HI-TECH Software Omniscient Code Generator (Lite mode) build 49521"
   345  018D                     EECON2 equ 018Dh ;# 
   346                           opt subtitle "HI-TECH Software Omniscient Code Generator (Lite mode) build 49521"
   347  0000                     INDF equ 00h ;# 
   348                           opt subtitle "HI-TECH Software Omniscient Code Generator (Lite mode) build 49521"
   349  0001                     TMR0 equ 01h ;# 
   350                           opt subtitle "HI-TECH Software Omniscient Code Generator (Lite mode) build 49521"
   351  0002                     PCL equ 02h ;# 
   352                           opt subtitle "HI-TECH Software Omniscient Code Generator (Lite mode) build 49521"
   353  0003                     STATUS equ 03h ;# 
   354                           opt subtitle "HI-TECH Software Omniscient Code Generator (Lite mode) build 49521"
   355  0004                     FSR equ 04h ;# 
   356                           opt subtitle "HI-TECH Software Omniscient Code Generator (Lite mode) build 49521"
   357  0005                     PORTA equ 05h ;# 
   358                           opt subtitle "HI-TECH Software Omniscient Code Generator (Lite mode) build 49521"
   359  0006                     PORTB equ 06h ;# 
   360                           opt subtitle "HI-TECH Software Omniscient Code Generator (Lite mode) build 49521"
   361  0007                     PORTC equ 07h ;# 
   362                           opt subtitle "HI-TECH Software Omniscient Code Generator (Lite mode) build 49521"
   363  0009                     PORTE equ 09h ;# 
   364                           opt subtitle "HI-TECH Software Omniscient Code Generator (Lite mode) build 49521"
   365  000A                     PCLATH equ 0Ah ;# 
   366                           opt subtitle "HI-TECH Software Omniscient Code Generator (Lite mode) build 49521"
   367  000B                     INTCON equ 0Bh ;# 
   368                           opt subtitle "HI-TECH Software Omniscient Code Generator (Lite mode) build 49521"
   369  000C                     PIR1 equ 0Ch ;# 
   370                           opt subtitle "HI-TECH Software Omniscient Code Generator (Lite mode) build 49521"
   371  000D                     PIR2 equ 0Dh ;# 
   372                           opt subtitle "HI-TECH Software Omniscient Code Generator (Lite mode) build 49521"
   373  000E                     TMR1 equ 0Eh ;# 
   374                           opt subtitle "HI-TECH Software Omniscient Code Generator (Lite mode) build 49521"
   375  000E                     TMR1L equ 0Eh ;# 
   376                           opt subtitle "HI-TECH Software Omniscient Code Generator (Lite mode) build 49521"
   377  000F                     TMR1H equ 0Fh ;# 
   378                           opt subtitle "HI-TECH Software Omniscient Code Generator (Lite mode) build 49521"
   379  0010                     T1CON equ 010h ;# 
   380                           opt subtitle "HI-TECH Software Omniscient Code Generator (Lite mode) build 49521"
   381  0011                     TMR2 equ 011h ;# 
   382                           opt subtitle "HI-TECH Software Omniscient Code Generator (Lite mode) build 49521"
   383  0012                     T2CON equ 012h ;# 
   384                           opt subtitle "HI-TECH Software Omniscient Code Generator (Lite mode) build 49521"
   385  0013                     SSPBUF equ 013h ;# 
   386                           opt subtitle "HI-TECH Software Omniscient Code Generator (Lite mode) build 49521"
   387  0014                     SSPCON equ 014h ;# 
   388                           opt subtitle "HI-TECH Software Omniscient Code Generator (Lite mode) build 49521"
   389  0015                     CCPR1 equ 015h ;# 
   390                           opt subtitle "HI-TECH Software Omniscient Code Generator (Lite mode) build 49521"
   391  0015                     CCPR1L equ 015h ;# 
   392                           opt subtitle "HI-TECH Software Omniscient Code Generator (Lite mode) build 49521"
   393  0016                     CCPR1H equ 016h ;# 
   394                           opt subtitle "HI-TECH Software Omniscient Code Generator (Lite mode) build 49521"
   395  0017                     CCP1CON equ 017h ;# 
   396                           opt subtitle "HI-TECH Software Omniscient Code Generator (Lite mode) build 49521"
   397  0018                     RCSTA equ 018h ;# 
   398                           opt subtitle "HI-TECH Software Omniscient Code Generator (Lite mode) build 49521"
   399  0019                     TXREG equ 019h ;# 
   400                           opt subtitle "HI-TECH Software Omniscient Code Generator (Lite mode) build 49521"
   401  001A                     RCREG equ 01Ah ;# 
   402                           opt subtitle "HI-TECH Software Omniscient Code Generator (Lite mode) build 49521"
   403  001B                     CCPR2 equ 01Bh ;# 
   404                           opt subtitle "HI-TECH Software Omniscient Code Generator (Lite mode) build 49521"
   405  001B                     CCPR2L equ 01Bh ;# 
   406                           opt subtitle "HI-TECH Software Omniscient Code Generator (Lite mode) build 49521"
   407  001C                     CCPR2H equ 01Ch ;# 
   408                           opt subtitle "HI-TECH Software Omniscient Code Generator (Lite mode) build 49521"
   409  001D                     CCP2CON equ 01Dh ;# 
   410                           opt subtitle "HI-TECH Software Omniscient Code Generator (Lite mode) build 49521"
   411  001E                     ADRESH equ 01Eh ;# 
   412                           opt subtitle "HI-TECH Software Omniscient Code Generator (Lite mode) build 49521"
   413  001F                     ADCON0 equ 01Fh ;# 
   414                           opt subtitle "HI-TECH Software Omniscient Code Generator (Lite mode) build 49521"
   415  0081                     OPTION_REG equ 081h ;# 
   416                           opt subtitle "HI-TECH Software Omniscient Code Generator (Lite mode) build 49521"
   417  0085                     TRISA equ 085h ;# 
   418                           opt subtitle "HI-TECH Software Omniscient Code Generator (Lite mode) build 49521"
   419  0086                     TRISB equ 086h ;# 
   420                           opt subtitle "HI-TECH Software Omniscient Code Generator (Lite mode) build 49521"
   421  0087                     TRISC equ 087h ;# 
   422                           opt subtitle "HI-TECH Software Omniscient Code Generator (Lite mode) build 49521"
   423  0089                     TRISE equ 089h ;# 
   424                           opt subtitle "HI-TECH Software Omniscient Code Generator (Lite mode) build 49521"
   425  008C                     PIE1 equ 08Ch ;# 
   426                           opt subtitle "HI-TECH Software Omniscient Code Generator (Lite mode) build 49521"
   427  008D                     PIE2 equ 08Dh ;# 
   428                           opt subtitle "HI-TECH Software Omniscient Code Generator (Lite mode) build 49521"
   429  008E                     PCON equ 08Eh ;# 
   430                           opt subtitle "HI-TECH Software Omniscient Code Generator (Lite mode) build 49521"
   431  008F                     OSCCON equ 08Fh ;# 
   432                           opt subtitle "HI-TECH Software Omniscient Code Generator (Lite mode) build 49521"
   433  0090                     OSCTUNE equ 090h ;# 
   434                           opt subtitle "HI-TECH Software Omniscient Code Generator (Lite mode) build 49521"
   435  0091                     SSPCON2 equ 091h ;# 
   436                           opt subtitle "HI-TECH Software Omniscient Code Generator (Lite mode) build 49521"
   437  0092                     PR2 equ 092h ;# 
   438                           opt subtitle "HI-TECH Software Omniscient Code Generator (Lite mode) build 49521"
   439  0093                     SSPADD equ 093h ;# 
   440                           opt subtitle "HI-TECH Software Omniscient Code Generator (Lite mode) build 49521"
   441  0093                     SSPMSK equ 093h ;# 
   442                           opt subtitle "HI-TECH Software Omniscient Code Generator (Lite mode) build 49521"
   443  0093                     MSK equ 093h ;# 
   444                           opt subtitle "HI-TECH Software Omniscient Code Generator (Lite mode) build 49521"
   445  0094                     SSPSTAT equ 094h ;# 
   446                           opt subtitle "HI-TECH Software Omniscient Code Generator (Lite mode) build 49521"
   447  0095                     WPUB equ 095h ;# 
   448                           opt subtitle "HI-TECH Software Omniscient Code Generator (Lite mode) build 49521"
   449  0096                     IOCB equ 096h ;# 
   450                           opt subtitle "HI-TECH Software Omniscient Code Generator (Lite mode) build 49521"
   451  0097                     VRCON equ 097h ;# 
   452                           opt subtitle "HI-TECH Software Omniscient Code Generator (Lite mode) build 49521"
   453  0098                     TXSTA equ 098h ;# 
   454                           opt subtitle "HI-TECH Software Omniscient Code Generator (Lite mode) build 49521"
   455  0099                     SPBRG equ 099h ;# 
   456                           opt subtitle "HI-TECH Software Omniscient Code Generator (Lite mode) build 49521"
   457  009A                     SPBRGH equ 09Ah ;# 
   458                           opt subtitle "HI-TECH Software Omniscient Code Generator (Lite mode) build 49521"
   459  009B                     PWM1CON equ 09Bh ;# 
   460                           opt subtitle "HI-TECH Software Omniscient Code Generator (Lite mode) build 49521"
   461  009C                     ECCPAS equ 09Ch ;# 
   462                           opt subtitle "HI-TECH Software Omniscient Code Generator (Lite mode) build 49521"
   463  009D                     PSTRCON equ 09Dh ;# 
   464                           opt subtitle "HI-TECH Software Omniscient Code Generator (Lite mode) build 49521"
   465  009E                     ADRESL equ 09Eh ;# 
   466                           opt subtitle "HI-TECH Software Omniscient Code Generator (Lite mode) build 49521"
   467  009F                     ADCON1 equ 09Fh ;# 
   468                           opt subtitle "HI-TECH Software Omniscient Code Generator (Lite mode) build 49521"
   469  0105                     WDTCON equ 0105h ;# 
   470                           opt subtitle "HI-TECH Software Omniscient Code Generator (Lite mode) build 49521"
   471  0107                     CM1CON0 equ 0107h ;# 
   472                           opt subtitle "HI-TECH Software Omniscient Code Generator (Lite mode) build 49521"
   473  0108                     CM2CON0 equ 0108h ;# 
   474                           opt subtitle "HI-TECH Software Omniscient Code Generator (Lite mode) build 49521"
   475  0109                     CM2CON1 equ 0109h ;# 
   476                           opt subtitle "HI-TECH Software Omniscient Code Generator (Lite mode) build 49521"
   477  010C                     EEDATA equ 010Ch ;# 
   478                           opt subtitle "HI-TECH Software Omniscient Code Generator (Lite mode) build 49521"
   479  010C                     EEDAT equ 010Ch ;# 
   480                           opt subtitle "HI-TECH Software Omniscient Code Generator (Lite mode) build 49521"
   481  010D                     EEADR equ 010Dh ;# 
   482                           opt subtitle "HI-TECH Software Omniscient Code Generator (Lite mode) build 49521"
   483  010E                     EEDATH equ 010Eh ;# 
   484                           opt subtitle "HI-TECH Software Omniscient Code Generator (Lite mode) build 49521"
   485  010F                     EEADRH equ 010Fh ;# 
   486                           opt subtitle "HI-TECH Software Omniscient Code Generator (Lite mode) build 49521"
   487  0185                     SRCON equ 0185h ;# 
   488                           opt subtitle "HI-TECH Software Omniscient Code Generator (Lite mode) build 49521"
   489  0187                     BAUDCTL equ 0187h ;# 
   490                           opt subtitle "HI-TECH Software Omniscient Code Generator (Lite mode) build 49521"
   491  0188                     ANSEL equ 0188h ;# 
   492                           opt subtitle "HI-TECH Software Omniscient Code Generator (Lite mode) build 49521"
   493  0189                     ANSELH equ 0189h ;# 
   494                           opt subtitle "HI-TECH Software Omniscient Code Generator (Lite mode) build 49521"
   495  018C                     EECON1 equ 018Ch ;# 
   496                           opt subtitle "HI-TECH Software Omniscient Code Generator (Lite mode) build 49521"
   497  018D                     EECON2 equ 018Dh ;# 
   498                           opt subtitle "HI-TECH Software Omniscient Code Generator (Lite mode) build 49521"
   499  0000                     INDF equ 00h ;# 
   500                           opt subtitle "HI-TECH Software Omniscient Code Generator (Lite mode) build 49521"
   501  0001                     TMR0 equ 01h ;# 
   502                           opt subtitle "HI-TECH Software Omniscient Code Generator (Lite mode) build 49521"
   503  0002                     PCL equ 02h ;# 
   504                           opt subtitle "HI-TECH Software Omniscient Code Generator (Lite mode) build 49521"
   505  0003                     STATUS equ 03h ;# 
   506                           opt subtitle "HI-TECH Software Omniscient Code Generator (Lite mode) build 49521"
   507  0004                     FSR equ 04h ;# 
   508                           opt subtitle "HI-TECH Software Omniscient Code Generator (Lite mode) build 49521"
   509  0005                     PORTA equ 05h ;# 
   510                           opt subtitle "HI-TECH Software Omniscient Code Generator (Lite mode) build 49521"
   511  0006                     PORTB equ 06h ;# 
   512                           opt subtitle "HI-TECH Software Omniscient Code Generator (Lite mode) build 49521"
   513  0007                     PORTC equ 07h ;# 
   514                           opt subtitle "HI-TECH Software Omniscient Code Generator (Lite mode) build 49521"
   515  0009                     PORTE equ 09h ;# 
   516                           opt subtitle "HI-TECH Software Omniscient Code Generator (Lite mode) build 49521"
   517  000A                     PCLATH equ 0Ah ;# 
   518                           opt subtitle "HI-TECH Software Omniscient Code Generator (Lite mode) build 49521"
   519  000B                     INTCON equ 0Bh ;# 
   520                           opt subtitle "HI-TECH Software Omniscient Code Generator (Lite mode) build 49521"
   521  000C                     PIR1 equ 0Ch ;# 
   522                           opt subtitle "HI-TECH Software Omniscient Code Generator (Lite mode) build 49521"
   523  000D                     PIR2 equ 0Dh ;# 
   524                           opt subtitle "HI-TECH Software Omniscient Code Generator (Lite mode) build 49521"
   525  000E                     TMR1 equ 0Eh ;# 
   526                           opt subtitle "HI-TECH Software Omniscient Code Generator (Lite mode) build 49521"
   527  000E                     TMR1L equ 0Eh ;# 
   528                           opt subtitle "HI-TECH Software Omniscient Code Generator (Lite mode) build 49521"
   529  000F                     TMR1H equ 0Fh ;# 
   530                           opt subtitle "HI-TECH Software Omniscient Code Generator (Lite mode) build 49521"
   531  0010                     T1CON equ 010h ;# 
   532                           opt subtitle "HI-TECH Software Omniscient Code Generator (Lite mode) build 49521"
   533  0011                     TMR2 equ 011h ;# 
   534                           opt subtitle "HI-TECH Software Omniscient Code Generator (Lite mode) build 49521"
   535  0012                     T2CON equ 012h ;# 
   536                           opt subtitle "HI-TECH Software Omniscient Code Generator (Lite mode) build 49521"
   537  0013                     SSPBUF equ 013h ;# 
   538                           opt subtitle "HI-TECH Software Omniscient Code Generator (Lite mode) build 49521"
   539  0014                     SSPCON equ 014h ;# 
   540                           opt subtitle "HI-TECH Software Omniscient Code Generator (Lite mode) build 49521"
   541  0015                     CCPR1 equ 015h ;# 
   542                           opt subtitle "HI-TECH Software Omniscient Code Generator (Lite mode) build 49521"
   543  0015                     CCPR1L equ 015h ;# 
   544                           opt subtitle "HI-TECH Software Omniscient Code Generator (Lite mode) build 49521"
   545  0016                     CCPR1H equ 016h ;# 
   546                           opt subtitle "HI-TECH Software Omniscient Code Generator (Lite mode) build 49521"
   547  0017                     CCP1CON equ 017h ;# 
   548                           opt subtitle "HI-TECH Software Omniscient Code Generator (Lite mode) build 49521"
   549  0018                     RCSTA equ 018h ;# 
   550                           opt subtitle "HI-TECH Software Omniscient Code Generator (Lite mode) build 49521"
   551  0019                     TXREG equ 019h ;# 
   552                           opt subtitle "HI-TECH Software Omniscient Code Generator (Lite mode) build 49521"
   553  001A                     RCREG equ 01Ah ;# 
   554                           opt subtitle "HI-TECH Software Omniscient Code Generator (Lite mode) build 49521"
   555  001B                     CCPR2 equ 01Bh ;# 
   556                           opt subtitle "HI-TECH Software Omniscient Code Generator (Lite mode) build 49521"
   557  001B                     CCPR2L equ 01Bh ;# 
   558                           opt subtitle "HI-TECH Software Omniscient Code Generator (Lite mode) build 49521"
   559  001C                     CCPR2H equ 01Ch ;# 
   560                           opt subtitle "HI-TECH Software Omniscient Code Generator (Lite mode) build 49521"
   561  001D                     CCP2CON equ 01Dh ;# 
   562                           opt subtitle "HI-TECH Software Omniscient Code Generator (Lite mode) build 49521"
   563  001E                     ADRESH equ 01Eh ;# 
   564                           opt subtitle "HI-TECH Software Omniscient Code Generator (Lite mode) build 49521"
   565  001F                     ADCON0 equ 01Fh ;# 
   566                           opt subtitle "HI-TECH Software Omniscient Code Generator (Lite mode) build 49521"
   567  0081                     OPTION_REG equ 081h ;# 
   568                           opt subtitle "HI-TECH Software Omniscient Code Generator (Lite mode) build 49521"
   569  0085                     TRISA equ 085h ;# 
   570                           opt subtitle "HI-TECH Software Omniscient Code Generator (Lite mode) build 49521"
   571  0086                     TRISB equ 086h ;# 
   572                           opt subtitle "HI-TECH Software Omniscient Code Generator (Lite mode) build 49521"
   573  0087                     TRISC equ 087h ;# 
   574                           opt subtitle "HI-TECH Software Omniscient Code Generator (Lite mode) build 49521"
   575  0089                     TRISE equ 089h ;# 
   576                           opt subtitle "HI-TECH Software Omniscient Code Generator (Lite mode) build 49521"
   577  008C                     PIE1 equ 08Ch ;# 
   578                           opt subtitle "HI-TECH Software Omniscient Code Generator (Lite mode) build 49521"
   579  008D                     PIE2 equ 08Dh ;# 
   580                           opt subtitle "HI-TECH Software Omniscient Code Generator (Lite mode) build 49521"
   581  008E                     PCON equ 08Eh ;# 
   582                           opt subtitle "HI-TECH Software Omniscient Code Generator (Lite mode) build 49521"
   583  008F                     OSCCON equ 08Fh ;# 
   584                           opt subtitle "HI-TECH Software Omniscient Code Generator (Lite mode) build 49521"
   585  0090                     OSCTUNE equ 090h ;# 
   586                           opt subtitle "HI-TECH Software Omniscient Code Generator (Lite mode) build 49521"
   587  0091                     SSPCON2 equ 091h ;# 
   588                           opt subtitle "HI-TECH Software Omniscient Code Generator (Lite mode) build 49521"
   589  0092                     PR2 equ 092h ;# 
   590                           opt subtitle "HI-TECH Software Omniscient Code Generator (Lite mode) build 49521"
   591  0093                     SSPADD equ 093h ;# 
   592                           opt subtitle "HI-TECH Software Omniscient Code Generator (Lite mode) build 49521"
   593  0093                     SSPMSK equ 093h ;# 
   594                           opt subtitle "HI-TECH Software Omniscient Code Generator (Lite mode) build 49521"
   595  0093                     MSK equ 093h ;# 
   596                           opt subtitle "HI-TECH Software Omniscient Code Generator (Lite mode) build 49521"
   597  0094                     SSPSTAT equ 094h ;# 
   598                           opt subtitle "HI-TECH Software Omniscient Code Generator (Lite mode) build 49521"
   599  0095                     WPUB equ 095h ;# 
   600                           opt subtitle "HI-TECH Software Omniscient Code Generator (Lite mode) build 49521"
   601  0096                     IOCB equ 096h ;# 
   602                           opt subtitle "HI-TECH Software Omniscient Code Generator (Lite mode) build 49521"
   603  0097                     VRCON equ 097h ;# 
   604                           opt subtitle "HI-TECH Software Omniscient Code Generator (Lite mode) build 49521"
   605  0098                     TXSTA equ 098h ;# 
   606                           opt subtitle "HI-TECH Software Omniscient Code Generator (Lite mode) build 49521"
   607  0099                     SPBRG equ 099h ;# 
   608                           opt subtitle "HI-TECH Software Omniscient Code Generator (Lite mode) build 49521"
   609  009A                     SPBRGH equ 09Ah ;# 
   610                           opt subtitle "HI-TECH Software Omniscient Code Generator (Lite mode) build 49521"
   611  009B                     PWM1CON equ 09Bh ;# 
   612                           opt subtitle "HI-TECH Software Omniscient Code Generator (Lite mode) build 49521"
   613  009C                     ECCPAS equ 09Ch ;# 
   614                           opt subtitle "HI-TECH Software Omniscient Code Generator (Lite mode) build 49521"
   615  009D                     PSTRCON equ 09Dh ;# 
   616                           opt subtitle "HI-TECH Software Omniscient Code Generator (Lite mode) build 49521"
   617  009E                     ADRESL equ 09Eh ;# 
   618                           opt subtitle "HI-TECH Software Omniscient Code Generator (Lite mode) build 49521"
   619  009F                     ADCON1 equ 09Fh ;# 
   620                           opt subtitle "HI-TECH Software Omniscient Code Generator (Lite mode) build 49521"
   621  0105                     WDTCON equ 0105h ;# 
   622                           opt subtitle "HI-TECH Software Omniscient Code Generator (Lite mode) build 49521"
   623  0107                     CM1CON0 equ 0107h ;# 
   624                           opt subtitle "HI-TECH Software Omniscient Code Generator (Lite mode) build 49521"
   625  0108                     CM2CON0 equ 0108h ;# 
   626                           opt subtitle "HI-TECH Software Omniscient Code Generator (Lite mode) build 49521"
   627  0109                     CM2CON1 equ 0109h ;# 
   628                           opt subtitle "HI-TECH Software Omniscient Code Generator (Lite mode) build 49521"
   629  010C                     EEDATA equ 010Ch ;# 
   630                           opt subtitle "HI-TECH Software Omniscient Code Generator (Lite mode) build 49521"
   631  010C                     EEDAT equ 010Ch ;# 
   632                           opt subtitle "HI-TECH Software Omniscient Code Generator (Lite mode) build 49521"
   633  010D                     EEADR equ 010Dh ;# 
   634                           opt subtitle "HI-TECH Software Omniscient Code Generator (Lite mode) build 49521"
   635  010E                     EEDATH equ 010Eh ;# 
   636                           opt subtitle "HI-TECH Software Omniscient Code Generator (Lite mode) build 49521"
   637  010F                     EEADRH equ 010Fh ;# 
   638                           opt subtitle "HI-TECH Software Omniscient Code Generator (Lite mode) build 49521"
   639  0185                     SRCON equ 0185h ;# 
   640                           opt subtitle "HI-TECH Software Omniscient Code Generator (Lite mode) build 49521"
   641  0187                     BAUDCTL equ 0187h ;# 
   642                           opt subtitle "HI-TECH Software Omniscient Code Generator (Lite mode) build 49521"
   643  0188                     ANSEL equ 0188h ;# 
   644                           opt subtitle "HI-TECH Software Omniscient Code Generator (Lite mode) build 49521"
   645  0189                     ANSELH equ 0189h ;# 
   646                           opt subtitle "HI-TECH Software Omniscient Code Generator (Lite mode) build 49521"
   647  018C                     EECON1 equ 018Ch ;# 
   648                           opt subtitle "HI-TECH Software Omniscient Code Generator (Lite mode) build 49521"
   649  018D                     EECON2 equ 018Dh ;# 
   650                           opt subtitle "HI-TECH Software Omniscient Code Generator (Lite mode) build 49521"
   651                           
   652                           opt pagewidth 120
   653                           
   654                           	opt lm
   655                           
   656                           	processor	16F886
   657                           clrc	macro
   658                           	bcf	3,0
   659                           	endm
   660                           clrz	macro
   661                           	bcf	3,2
   662                           	endm
   663                           setc	macro
   664  014F                     __pidataBANK0:
   665                           opt subtitle "HI-TECH Software Omniscient Code Generator (Lite mode) build 49521"
   666                           
   667                           opt pagewidth 120
   668                           
   669  014F  3441               	retlw	041h
   670                           opt subtitle "HI-TECH Software Omniscient Code Generator (Lite mode) build 49521"
   671  0017                     _CCP1CON	set	0x17
   672                           opt subtitle "HI-TECH Software Omniscient Code Generator (Lite mode) build 49521"
   673  001D                     _CCP2CON	set	0x1D
   674                           opt subtitle "HI-TECH Software Omniscient Code Generator (Lite mode) build 49521"
   675  0015                     _CCPR1L	set	0x15
   676                           opt subtitle "HI-TECH Software Omniscient Code Generator (Lite mode) build 49521"
   677  001B                     _CCPR2L	set	0x1B
   678                           opt subtitle "HI-TECH Software Omniscient Code Generator (Lite mode) build 49521"
   679  001A                     _RCREG	set	0x1A
   680                           opt subtitle "HI-TECH Software Omniscient Code Generator (Lite mode) build 49521"
   681  0012                     _T2CON	set	0x12
   682                           opt subtitle "HI-TECH Software Omniscient Code Generator (Lite mode) build 49521"
   683  0019                     _TXREG	set	0x19
   684                           opt subtitle "HI-TECH Software Omniscient Code Generator (Lite mode) build 49521"
   685  00C4                     _CREN	set	0xC4
   686                           opt subtitle "HI-TECH Software Omniscient Code Generator (Lite mode) build 49521"
   687  00C2                     _FERR	set	0xC2
   688                           opt subtitle "HI-TECH Software Omniscient Code Generator (Lite mode) build 49521"
   689  005F                     _GIE	set	0x5F
   690                           opt subtitle "HI-TECH Software Omniscient Code Generator (Lite mode) build 49521"
   691  005C                     _INTE	set	0x5C
   692                           opt subtitle "HI-TECH Software Omniscient Code Generator (Lite mode) build 49521"
   693  00C1                     _OERR	set	0xC1
   694                           opt subtitle "HI-TECH Software Omniscient Code Generator (Lite mode) build 49521"
   695  005E                     _PEIE	set	0x5E
   696                           opt subtitle "HI-TECH Software Omniscient Code Generator (Lite mode) build 49521"
   697  0028                     _RA0	set	0x28
   698                           opt subtitle "HI-TECH Software Omniscient Code Generator (Lite mode) build 49521"
   699  0029                     _RA1	set	0x29
   700                           opt subtitle "HI-TECH Software Omniscient Code Generator (Lite mode) build 49521"
   701  002A                     _RA2	set	0x2A
   702                           opt subtitle "HI-TECH Software Omniscient Code Generator (Lite mode) build 49521"
   703  002B                     _RA3	set	0x2B
   704                           opt subtitle "HI-TECH Software Omniscient Code Generator (Lite mode) build 49521"
   705  0035                     _RB5	set	0x35
   706                           opt subtitle "HI-TECH Software Omniscient Code Generator (Lite mode) build 49521"
   707  0065                     _RCIF	set	0x65
   708                           opt subtitle "HI-TECH Software Omniscient Code Generator (Lite mode) build 49521"
   709  00C6                     _RX9	set	0xC6
   710                           opt subtitle "HI-TECH Software Omniscient Code Generator (Lite mode) build 49521"
   711  00C7                     _SPEN	set	0xC7
   712                           opt subtitle "HI-TECH Software Omniscient Code Generator (Lite mode) build 49521"
   713  0061                     _TMR2IF	set	0x61
   714                           opt subtitle "HI-TECH Software Omniscient Code Generator (Lite mode) build 49521"
   715  0064                     _TXIF	set	0x64
   716                           opt subtitle "HI-TECH Software Omniscient Code Generator (Lite mode) build 49521"
   717  0092                     _PR2	set	0x92
   718                           opt subtitle "HI-TECH Software Omniscient Code Generator (Lite mode) build 49521"
   719  0099                     _SPBRG	set	0x99
   720                           opt subtitle "HI-TECH Software Omniscient Code Generator (Lite mode) build 49521"
   721  009A                     _SPBRGH	set	0x9A
   722                           opt subtitle "HI-TECH Software Omniscient Code Generator (Lite mode) build 49521"
   723  04C2                     _BRGH	set	0x4C2
   724                           opt subtitle "HI-TECH Software Omniscient Code Generator (Lite mode) build 49521"
   725  0465                     _RCIE	set	0x465
   726                           opt subtitle "HI-TECH Software Omniscient Code Generator (Lite mode) build 49521"
   727  04C4                     _SYNC	set	0x4C4
   728                           opt subtitle "HI-TECH Software Omniscient Code Generator (Lite mode) build 49521"
   729  0461                     _TMR2IE	set	0x461
   730                           opt subtitle "HI-TECH Software Omniscient Code Generator (Lite mode) build 49521"
   731  0428                     _TRISA0	set	0x428
   732                           opt subtitle "HI-TECH Software Omniscient Code Generator (Lite mode) build 49521"
   733  0429                     _TRISA1	set	0x429
   734                           opt subtitle "HI-TECH Software Omniscient Code Generator (Lite mode) build 49521"
   735  042A                     _TRISA2	set	0x42A
   736                           opt subtitle "HI-TECH Software Omniscient Code Generator (Lite mode) build 49521"
   737  042B                     _TRISA3	set	0x42B
   738                           opt subtitle "HI-TECH Software Omniscient Code Generator (Lite mode) build 49521"
   739  0435                     _TRISB5	set	0x435
   740                           opt subtitle "HI-TECH Software Omniscient Code Generator (Lite mode) build 49521"
   741  0439                     _TRISC1	set	0x439
   742                           opt subtitle "HI-TECH Software Omniscient Code Generator (Lite mode) build 49521"
   743  043A                     _TRISC2	set	0x43A
   744                           opt subtitle "HI-TECH Software Omniscient Code Generator (Lite mode) build 49521"
   745  043E                     _TRISC6	set	0x43E
   746                           opt subtitle "HI-TECH Software Omniscient Code Generator (Lite mode) build 49521"
   747  043F                     _TRISC7	set	0x43F
   748                           opt subtitle "HI-TECH Software Omniscient Code Generator (Lite mode) build 49521"
   749  04C6                     _TX9	set	0x4C6
   750                           opt subtitle "HI-TECH Software Omniscient Code Generator (Lite mode) build 49521"
   751  04C5                     _TXEN	set	0x4C5
   752                           opt subtitle "HI-TECH Software Omniscient Code Generator (Lite mode) build 49521"
   753  0464                     _TXIE	set	0x464
   754                           opt subtitle "HI-TECH Software Omniscient Code Generator (Lite mode) build 49521"
   755  0188                     _ANSEL	set	0x188
   756                           opt subtitle "HI-TECH Software Omniscient Code Generator (Lite mode) build 49521"
   757  0189                     _ANSELH	set	0x189
   758                           opt subtitle "HI-TECH Software Omniscient Code Generator (Lite mode) build 49521"
   759  0C3B                     _BRG16	set	0xC3B
   760                           opt subtitle "HI-TECH Software Omniscient Code Generator (Lite mode) build 49521"
   761                           
   762  0000                     __CFG_BOREN$OFF equ 0x0
   763                           opt subtitle "HI-TECH Software Omniscient Code Generator (Lite mode) build 49521"
   764  0000                     __CFG_IESO$OFF equ 0x0
   765                           opt subtitle "HI-TECH Software Omniscient Code Generator (Lite mode) build 49521"
   766  0000                     __CFG_FOSC$INTRC_NOCLKOUT equ 0x0
   767                           opt subtitle "HI-TECH Software Omniscient Code Generator (Lite mode) build 49521"
   768  0000                     __CFG_FCMEN$OFF equ 0x0
   769                           opt subtitle "HI-TECH Software Omniscient Code Generator (Lite mode) build 49521"
   770  0000                     __CFG_WDTE$OFF equ 0x0
   771                           opt subtitle "HI-TECH Software Omniscient Code Generator (Lite mode) build 49521"
   772  0000                     __CFG_LVP$OFF equ 0x0
   773                           opt subtitle "HI-TECH Software Omniscient Code Generator (Lite mode) build 49521"
   774  0000                     __CFG_BOR4V$BOR21V equ 0x0
   775                           opt subtitle "HI-TECH Software Omniscient Code Generator (Lite mode) build 49521"
   776                           
   777                           opt pagewidth 120
   778                           
   779  013A                     start_initialization:
   780                           opt subtitle "HI-TECH Software Omniscient Code Generator (Lite mode) build 49521"
   781                           
   782  013A                     __initialization:
   783                           opt subtitle "HI-TECH Software Omniscient Code Generator (Lite mode) build 49521"
   784                           
   785  0026                     __pdataBANK0:
   786                           opt subtitle "HI-TECH Software Omniscient Code Generator (Lite mode) build 49521"
   787  0026                     _command:
   788  0026                            ds      1
   789                           opt subtitle "HI-TECH Software Omniscient Code Generator (Lite mode) build 49521"
   790                           
   791                           opt pagewidth 120
   792                           
   793  013A  1283               	bcf	status, 5	;RP0=0, select bank0
   794  013B  120A  118A  214F   	fcall	__pidataBANK0+0		;fetch initializer
              120A  118A         
   795  0140  00A6               	movwf	__pdataBANK0+0&07fh		
   796                           opt subtitle "HI-TECH Software Omniscient Code Generator (Lite mode) build 49521"
   797                           
   798                           opt pagewidth 120
   799                           
   800                           	opt lm
   801  0141                     end_of_initialization:
   802  0141                     __end_of__initialization:clrf status
      + 0141  0183               	clrf	3
   803  0142  120A  118A  2898   ljmp _main	;jump to C main() function
   804                           opt subtitle "HI-TECH Software Omniscient Code Generator (Lite mode) build 49521"
   805                           
   806  0070                     __pcstackCOMMON:
   807  0070                     ?_picInit:	; 0 bytes @ 0x0
   808  0070                     ?_motorInit:	; 0 bytes @ 0x0
   809  0070                     ?_Set_SPBRG:	; 0 bytes @ 0x0
   810  0070                     ?_clear_usart_errors:	; 0 bytes @ 0x0
   811  0070                     ??_clear_usart_errors:	; 0 bytes @ 0x0
   812  0070                     ?_isr:	; 0 bytes @ 0x0
   813  0070                     ?_pwmInit:	; 0 bytes @ 0x0
   814  0070                     ?_get_USART_char:	; 1 bytes @ 0x0
   815  0070                     	ds	1
   816                           opt subtitle "HI-TECH Software Omniscient Code Generator (Lite mode) build 49521"
   817  0071                     clear_usart_errors@dummy:	; 1 bytes @ 0x1
   818  0071                     	ds	1
   819  0072                     ??_get_USART_char:	; 0 bytes @ 0x2
   820  0072                     ??_isr:	; 0 bytes @ 0x2
   821  0072                     	ds	5
   822  0077                     ??_picInit:	; 0 bytes @ 0x7
   823  0077                     ??_USART_Init:	; 0 bytes @ 0x7
   824  0077                     ??_motorInit:	; 0 bytes @ 0x7
   825  0077                     ??_Set_SPBRG:	; 0 bytes @ 0x7
   826  0077                     ??_main:	; 0 bytes @ 0x7
   827  0077                     ??_pwmInit:	; 0 bytes @ 0x7
   828                           opt subtitle "HI-TECH Software Omniscient Code Generator (Lite mode) build 49521"
   829                           
   830  0020                     __pcstackBANK0:
   831                           opt subtitle "HI-TECH Software Omniscient Code Generator (Lite mode) build 49521"
   832  0020                     ?_USART_Init:	; 0 bytes @ 0x0
   833                           opt subtitle "HI-TECH Software Omniscient Code Generator (Lite mode) build 49521"
   834  0020                     USART_Init@receiveInterupts:	; 2 bytes @ 0x0
   835  0020                     	ds	2
   836  0022                     ?_main:	; 2 bytes @ 0x2
   837  0022                     main@argc:	; 2 bytes @ 0x2
   838  0022                     	ds	2
   839  0024                     main@argv:	; 2 bytes @ 0x4
   840  0024                     	ds	2
   841                           opt subtitle "HI-TECH Software Omniscient Code Generator (Lite mode) build 49521"
   842                           
   843                           opt pagewidth 120
   844                           
   845                           	opt lm
   846                           
   847                           	processor	16F886
   848                           clrc	macro
   849                           	bcf	3,0
   850                           	endm
   851                           clrz	macro
   852                           	bcf	3,2
   853                           	endm
   854                           setc	macro
   855                           	bsf	3,0
   856                           	endm
   857                           setz	macro
   858                           	bsf	3,2
   859                           	endm
   860                           skipc	macro
   861                           	btfss	3,0
   862                           	endm
   863                           skipz	macro
   864                           	btfss	3,2
   865                           	endm
   866                           skipnc	macro
   867                           	btfsc	3,0
   868                           	endm
   869                           skipnz	macro
   870                           	btfsc	3,2
   871                           	endm
   872                           indf	equ	0
   873                           indf0	equ	0
   874                           pc	equ	2
   875                           pcl	equ	2
   876                           status	equ	3
   877                           fsr	equ	4
   878                           fsr0	equ	4
   879                           c	equ	1
   880                           z	equ	0
   881                           pclath	equ	10
   882                           # 46 "/opt/microchip/xc8/v1.12/include/pic16f886.h"
   883                           INDF equ 00h ;# 
   884                           # 52 "/opt/microchip/xc8/v1.12/include/pic16f886.h"
   885                           TMR0 equ 01h ;# 
   886                           # 58 "/opt/microchip/xc8/v1.12/include/pic16f886.h"
   887                           PCL equ 02h ;# 
   888                           # 64 "/opt/microchip/xc8/v1.12/include/pic16f886.h"
   889                           STATUS equ 03h ;# 
   890                           # 151 "/opt/microchip/xc8/v1.12/include/pic16f886.h"
   891                           FSR equ 04h ;# 
   892                           # 157 "/opt/microchip/xc8/v1.12/include/pic16f886.h"
   893                           PORTA equ 05h ;# 
   894                           # 218 "/opt/microchip/xc8/v1.12/include/pic16f886.h"
   895                           PORTB equ 06h ;# 
   896                           # 279 "/opt/microchip/xc8/v1.12/include/pic16f886.h"
   897                           PORTC equ 07h ;# 
   898                           # 340 "/opt/microchip/xc8/v1.12/include/pic16f886.h"
   899                           PORTE equ 09h ;# 
   900                           # 360 "/opt/microchip/xc8/v1.12/include/pic16f886.h"
   901                           PCLATH equ 0Ah ;# 
   902                           # 366 "/opt/microchip/xc8/v1.12/include/pic16f886.h"
   903                           INTCON equ 0Bh ;# 
   904                           # 443 "/opt/microchip/xc8/v1.12/include/pic16f886.h"
   905                           PIR1 equ 0Ch ;# 
   906                           # 498 "/opt/microchip/xc8/v1.12/include/pic16f886.h"
   907                           PIR2 equ 0Dh ;# 
   908                           # 554 "/opt/microchip/xc8/v1.12/include/pic16f886.h"
   909                           TMR1 equ 0Eh ;# 
   910                           # 560 "/opt/microchip/xc8/v1.12/include/pic16f886.h"
   911                           TMR1L equ 0Eh ;# 
   912                           # 566 "/opt/microchip/xc8/v1.12/include/pic16f886.h"
   913                           TMR1H equ 0Fh ;# 
   914                           # 572 "/opt/microchip/xc8/v1.12/include/pic16f886.h"
   915                           T1CON equ 010h ;# 
   916                           # 665 "/opt/microchip/xc8/v1.12/include/pic16f886.h"
   917                           TMR2 equ 011h ;# 
   918                           # 671 "/opt/microchip/xc8/v1.12/include/pic16f886.h"
   919                           T2CON equ 012h ;# 
   920                           # 741 "/opt/microchip/xc8/v1.12/include/pic16f886.h"
   921                           SSPBUF equ 013h ;# 
   922                           # 747 "/opt/microchip/xc8/v1.12/include/pic16f886.h"
   923                           SSPCON equ 014h ;# 
   924                           # 816 "/opt/microchip/xc8/v1.12/include/pic16f886.h"
   925                           CCPR1 equ 015h ;# 
   926                           # 822 "/opt/microchip/xc8/v1.12/include/pic16f886.h"
   927                           CCPR1L equ 015h ;# 
   928                           # 828 "/opt/microchip/xc8/v1.12/include/pic16f886.h"
   929                           CCPR1H equ 016h ;# 
   930                           # 834 "/opt/microchip/xc8/v1.12/include/pic16f886.h"
   931                           CCP1CON equ 017h ;# 
   932                           # 930 "/opt/microchip/xc8/v1.12/include/pic16f886.h"
   933                           RCSTA equ 018h ;# 
   934                           # 1024 "/opt/microchip/xc8/v1.12/include/pic16f886.h"
   935                           TXREG equ 019h ;# 
   936                           # 1030 "/opt/microchip/xc8/v1.12/include/pic16f886.h"
   937                           RCREG equ 01Ah ;# 
   938                           # 1036 "/opt/microchip/xc8/v1.12/include/pic16f886.h"
   939                           CCPR2 equ 01Bh ;# 
   940                           # 1042 "/opt/microchip/xc8/v1.12/include/pic16f886.h"
   941                           CCPR2L equ 01Bh ;# 
   942                           # 1048 "/opt/microchip/xc8/v1.12/include/pic16f886.h"
   943                           CCPR2H equ 01Ch ;# 
   944                           # 1054 "/opt/microchip/xc8/v1.12/include/pic16f886.h"
   945                           CCP2CON equ 01Dh ;# 
   946                           # 1123 "/opt/microchip/xc8/v1.12/include/pic16f886.h"
   947                           ADRESH equ 01Eh ;# 
   948                           # 1129 "/opt/microchip/xc8/v1.12/include/pic16f886.h"
   949                           ADCON0 equ 01Fh ;# 
   950                           # 1229 "/opt/microchip/xc8/v1.12/include/pic16f886.h"
   951                           OPTION_REG equ 081h ;# 
   952                           # 1298 "/opt/microchip/xc8/v1.12/include/pic16f886.h"
   953                           TRISA equ 085h ;# 
   954                           # 1359 "/opt/microchip/xc8/v1.12/include/pic16f886.h"
   955                           TRISB equ 086h ;# 
   956                           # 1420 "/opt/microchip/xc8/v1.12/include/pic16f886.h"
   957                           TRISC equ 087h ;# 
   958                           # 1481 "/opt/microchip/xc8/v1.12/include/pic16f886.h"
   959                           TRISE equ 089h ;# 
   960                           # 1501 "/opt/microchip/xc8/v1.12/include/pic16f886.h"
   961                           PIE1 equ 08Ch ;# 
   962                           # 1556 "/opt/microchip/xc8/v1.12/include/pic16f886.h"
   963                           PIE2 equ 08Dh ;# 
   964                           # 1612 "/opt/microchip/xc8/v1.12/include/pic16f886.h"
   965                           PCON equ 08Eh ;# 
   966                           # 1658 "/opt/microchip/xc8/v1.12/include/pic16f886.h"
   967                           OSCCON equ 08Fh ;# 
   968                           # 1722 "/opt/microchip/xc8/v1.12/include/pic16f886.h"
   969                           OSCTUNE equ 090h ;# 
   970                           # 1773 "/opt/microchip/xc8/v1.12/include/pic16f886.h"
   971                           SSPCON2 equ 091h ;# 
   972                           # 1834 "/opt/microchip/xc8/v1.12/include/pic16f886.h"
   973                           PR2 equ 092h ;# 
   974                           # 1840 "/opt/microchip/xc8/v1.12/include/pic16f886.h"
   975                           SSPADD equ 093h ;# 
   976                           # 1846 "/opt/microchip/xc8/v1.12/include/pic16f886.h"
   977                           SSPMSK equ 093h ;# 
   978                           # 1851 "/opt/microchip/xc8/v1.12/include/pic16f886.h"
   979                           MSK equ 093h ;# 
   980                           # 1967 "/opt/microchip/xc8/v1.12/include/pic16f886.h"
   981                           SSPSTAT equ 094h ;# 
   982                           # 2135 "/opt/microchip/xc8/v1.12/include/pic16f886.h"
   983                           WPUB equ 095h ;# 
   984                           # 2204 "/opt/microchip/xc8/v1.12/include/pic16f886.h"
   985                           IOCB equ 096h ;# 
   986                           # 2273 "/opt/microchip/xc8/v1.12/include/pic16f886.h"
   987                           VRCON equ 097h ;# 
   988                           # 2342 "/opt/microchip/xc8/v1.12/include/pic16f886.h"
   989                           TXSTA equ 098h ;# 
   990                           # 2427 "/opt/microchip/xc8/v1.12/include/pic16f886.h"
   991                           SPBRG equ 099h ;# 
   992                           # 2488 "/opt/microchip/xc8/v1.12/include/pic16f886.h"
   993                           SPBRGH equ 09Ah ;# 
   994                           # 2557 "/opt/microchip/xc8/v1.12/include/pic16f886.h"
   995                           PWM1CON equ 09Bh ;# 
   996                           # 2626 "/opt/microchip/xc8/v1.12/include/pic16f886.h"
   997                           ECCPAS equ 09Ch ;# 
   998                           # 2707 "/opt/microchip/xc8/v1.12/include/pic16f886.h"
   999                           PSTRCON equ 09Dh ;# 
  1000                           # 2750 "/opt/microchip/xc8/v1.12/include/pic16f886.h"
  1001                           ADRESL equ 09Eh ;# 
  1002                           # 2756 "/opt/microchip/xc8/v1.12/include/pic16f886.h"
  1003                           ADCON1 equ 09Fh ;# 
  1004                           # 2789 "/opt/microchip/xc8/v1.12/include/pic16f886.h"
  1005                           WDTCON equ 0105h ;# 
  1006                           # 2841 "/opt/microchip/xc8/v1.12/include/pic16f886.h"
  1007                           CM1CON0 equ 0107h ;# 
  1008                           # 2905 "/opt/microchip/xc8/v1.12/include/pic16f886.h"
  1009                           CM2CON0 equ 0108h ;# 
  1010                           # 2969 "/opt/microchip/xc8/v1.12/include/pic16f886.h"
  1011                           CM2CON1 equ 0109h ;# 
  1012                           # 3019 "/opt/microchip/xc8/v1.12/include/pic16f886.h"
  1013                           EEDATA equ 010Ch ;# 
  1014                           # 3024 "/opt/microchip/xc8/v1.12/include/pic16f886.h"
  1015                           EEDAT equ 010Ch ;# 
  1016                           # 3030 "/opt/microchip/xc8/v1.12/include/pic16f886.h"
  1017                           EEADR equ 010Dh ;# 
  1018                           # 3036 "/opt/microchip/xc8/v1.12/include/pic16f886.h"
  1019                           EEDATH equ 010Eh ;# 
  1020                           # 3042 "/opt/microchip/xc8/v1.12/include/pic16f886.h"
  1021                           EEADRH equ 010Fh ;# 
  1022                           # 3048 "/opt/microchip/xc8/v1.12/include/pic16f886.h"
  1023                           SRCON equ 0185h ;# 
  1024                           # 3104 "/opt/microchip/xc8/v1.12/include/pic16f886.h"
  1025                           BAUDCTL equ 0187h ;# 
  1026                           # 3155 "/opt/microchip/xc8/v1.12/include/pic16f886.h"
  1027                           ANSEL equ 0188h ;# 
  1028  0098                     __pmaintext:	;psect for function _main
  1029                           opt subtitle "HI-TECH Software Omniscient Code Generator (Lite mode) build 49521"
  1030                           
  1031                           opt pagewidth 120
  1032                           
  1033  0027                     	__size_of_main	equ	__end_of_main-_main
  1034                           opt subtitle "HI-TECH Software Omniscient Code Generator (Lite mode) build 49521"
  1035  0098                     _main:	
  1036                           opt subtitle "HI-TECH Software Omniscient Code Generator (Lite mode) build 49521"
  1037                           
  1038                           opt pagewidth 120
  1039                           
  1040  0098                     l943:	
  1041                           opt subtitle "HI-TECH Software Omniscient Code Generator (Lite mode) build 49521"
  1042  0098  120A  118A  2145   	fcall	_picInit
              120A  118A         
  1043                           opt subtitle "HI-TECH Software Omniscient Code Generator (Lite mode) build 49521"
  1044                           
  1045  009D                     l945:	
  1046                           opt subtitle "HI-TECH Software Omniscient Code Generator (Lite mode) build 49521"
  1047  009D  3001               	movlw	low(01h)
  1048  009E  1283               	bcf	status, 5	;RP0=0, select bank0
  1049  009F  1303               	bcf	status, 6	;RP1=0, select bank0
  1050  00A0  00A0               	movwf	(?_USART_Init)
  1051  00A1  3000               	movlw	high(01h)
  1052  00A2  00A1               	movwf	((?_USART_Init))+1
  1053  00A3  120A  118A  2066   	fcall	_USART_Init
              120A  118A         
  1054                           opt subtitle "HI-TECH Software Omniscient Code Generator (Lite mode) build 49521"
  1055                           
  1056  00A8                     l947:	
  1057                           opt subtitle "HI-TECH Software Omniscient Code Generator (Lite mode) build 49521"
  1058  00A8  120A  118A  2119   	fcall	_motorInit
              120A  118A         
  1059  00AD  28AE               	goto	l949
  1060                           opt subtitle "HI-TECH Software Omniscient Code Generator (Lite mode) build 49521"
  1061                           
  1062                           opt pagewidth 120
  1063  00AE                     l31:	
  1064                           opt subtitle "HI-TECH Software Omniscient Code Generator (Lite mode) build 49521"
  1065                           
  1066  00AE                     l949:	
  1067                           opt subtitle "HI-TECH Software Omniscient Code Generator (Lite mode) build 49521"
  1068                           
  1069  00AE  1283               	bcf	status, 5	;RP0=0, select bank0
  1070  00AF  1303               	bcf	status, 6	;RP1=0, select bank0
  1071  00B0  0826               	movf	(_command),w
  1072  00B1  3A41               	xorlw	041h
  1073  00B2  1D03               	skipz
  1074  00B3  28B5               	goto	u241
  1075  00B4  28B6               	goto	u240
  1076  00B5                     u241:
  1077  00B5  28B8               	goto	l32
  1078  00B6                     u240:
  1079                           opt subtitle "HI-TECH Software Omniscient Code Generator (Lite mode) build 49521"
  1080                           
  1081  00B6                     l951:	
  1082                           opt subtitle "HI-TECH Software Omniscient Code Generator (Lite mode) build 49521"
  1083                           
  1084  00B6  1686               	bsf	(53/8),(53)&7	;volatile
  1085                           opt subtitle "HI-TECH Software Omniscient Code Generator (Lite mode) build 49521"
  1086                           
  1087  00B7  28AE               	goto	l949
  1088                           opt subtitle "HI-TECH Software Omniscient Code Generator (Lite mode) build 49521"
  1089                           
  1090  00B8                     l32:	
  1091                           opt subtitle "HI-TECH Software Omniscient Code Generator (Lite mode) build 49521"
  1092                           
  1093                           opt pagewidth 120
  1094                           
  1095  00B8  1286               	bcf	(53/8),(53)&7	;volatile
  1096  00B9  28AE               	goto	l949
  1097                           opt subtitle "HI-TECH Software Omniscient Code Generator (Lite mode) build 49521"
  1098                           
  1099  00BA                     l33:	
  1100  00BA  28AE               	goto	l949
  1101                           opt subtitle "HI-TECH Software Omniscient Code Generator (Lite mode) build 49521"
  1102                           
  1103  00BB                     l34:	
  1104                           opt subtitle "HI-TECH Software Omniscient Code Generator (Lite mode) build 49521"
  1105  00BB  28AE               	goto	l949
  1106                           opt subtitle "HI-TECH Software Omniscient Code Generator (Lite mode) build 49521"
  1107  00BC                     l35:	
  1108                           opt subtitle "HI-TECH Software Omniscient Code Generator (Lite mode) build 49521"
  1109                           
  1110                           opt pagewidth 120
  1111                           
  1112                           	opt lm
  1113                           
  1114  00BC                     l36:	
  1115                           opt subtitle "HI-TECH Software Omniscient Code Generator (Lite mode) build 49521"
  1116  00BC  120A  118A  2812   	ljmp	start
  1117                           opt subtitle "HI-TECH Software Omniscient Code Generator (Lite mode) build 49521"
  1118                           
  1119  00BF                     	__end_of_main:
  1120                           opt subtitle "HI-TECH Software Omniscient Code Generator (Lite mode) build 49521"
  1121                           
  1122                           opt pagewidth 120
  1123                           
  1124                           	opt lm
  1125                           
  1126                           	processor	16F886
  1127                           clrc	macro
  1128                           	bcf	3,0
  1129                           	endm
  1130                           clrz	macro
  1131                           	bcf	3,2
  1132                           	endm
  1133                           setc	macro
  1134                           	bsf	3,0
  1135                           	endm
  1136                           setz	macro
  1137                           	bsf	3,2
  1138                           	endm
  1139                           skipc	macro
  1140                           	btfss	3,0
  1141                           	endm
  1142                           skipz	macro
  1143                           	btfss	3,2
  1144                           	endm
  1145                           skipnc	macro
  1146                           	btfsc	3,0
  1147                           	endm
  1148                           skipnz	macro
  1149                           	btfsc	3,2
  1150                           	endm
  1151                           indf	equ	0
  1152                           indf0	equ	0
  1153                           pc	equ	2
  1154  0145                     __ptext225:	;psect for function _picInit
  1155                           opt subtitle "HI-TECH Software Omniscient Code Generator (Lite mode) build 49521"
  1156                           
  1157                           opt pagewidth 120
  1158                           
  1159  000A                     	__size_of_picInit	equ	__end_of_picInit-_picInit
  1160                           opt subtitle "HI-TECH Software Omniscient Code Generator (Lite mode) build 49521"
  1161  0145                     _picInit:	
  1162                           opt subtitle "HI-TECH Software Omniscient Code Generator (Lite mode) build 49521"
  1163                           
  1164                           opt pagewidth 120
  1165                           
  1166  0145                     l953:	
  1167                           opt subtitle "HI-TECH Software Omniscient Code Generator (Lite mode) build 49521"
  1168  0145  1683               	bsf	status, 5	;RP0=1, select bank3
  1169  0146  1703               	bsf	status, 6	;RP1=1, select bank3
  1170  0147  0188               	clrf	(392)^0180h	;volatile
  1171                           opt subtitle "HI-TECH Software Omniscient Code Generator (Lite mode) build 49521"
  1172                           
  1173  0148  0189               	clrf	(393)^0180h	;volatile
  1174                           opt subtitle "HI-TECH Software Omniscient Code Generator (Lite mode) build 49521"
  1175                           
  1176  0149                     l955:	
  1177                           opt subtitle "HI-TECH Software Omniscient Code Generator (Lite mode) build 49521"
  1178  0149  1683               	bsf	status, 5	;RP0=1, select bank1
  1179  014A  1303               	bcf	status, 6	;RP1=0, select bank1
  1180  014B  1286               	bcf	(1077/8)^080h,(1077)&7	;volatile
  1181                           opt subtitle "HI-TECH Software Omniscient Code Generator (Lite mode) build 49521"
  1182                           
  1183  014C                     l957:	
  1184                           opt subtitle "HI-TECH Software Omniscient Code Generator (Lite mode) build 49521"
  1185  014C  138B               	bcf	(95/8),(95)&7	;volatile
  1186  014D  294E               	goto	l39
  1187                           opt subtitle "HI-TECH Software Omniscient Code Generator (Lite mode) build 49521"
  1188                           
  1189  014E                     l959:	
  1190                           opt subtitle "HI-TECH Software Omniscient Code Generator (Lite mode) build 49521"
  1191                           
  1192                           opt pagewidth 120
  1193  014E                     l39:	
  1194  014E  0008               	return
  1195                           opt subtitle "HI-TECH Software Omniscient Code Generator (Lite mode) build 49521"
  1196                           
  1197  014F                     	__end_of_picInit:
  1198                           opt subtitle "HI-TECH Software Omniscient Code Generator (Lite mode) build 49521"
  1199                           
  1200                           opt pagewidth 120
  1201                           
  1202                           	opt lm
  1203                           
  1204                           	processor	16F886
  1205                           clrc	macro
  1206                           	bcf	3,0
  1207                           	endm
  1208                           clrz	macro
  1209                           	bcf	3,2
  1210                           	endm
  1211                           setc	macro
  1212                           	bsf	3,0
  1213                           	endm
  1214                           setz	macro
  1215                           	bsf	3,2
  1216                           	endm
  1217                           skipc	macro
  1218                           	btfss	3,0
  1219                           	endm
  1220                           skipz	macro
  1221                           	btfss	3,2
  1222                           	endm
  1223                           skipnc	macro
  1224                           	btfsc	3,0
  1225                           	endm
  1226                           skipnz	macro
  1227                           	btfsc	3,2
  1228                           	endm
  1229                           indf	equ	0
  1230                           indf0	equ	0
  1231                           pc	equ	2
  1232  0066                     __ptext226:	;psect for function _USART_Init
  1233                           opt subtitle "HI-TECH Software Omniscient Code Generator (Lite mode) build 49521"
  1234                           
  1235                           opt pagewidth 120
  1236                           
  1237  0032                     	__size_of_USART_Init	equ	__end_of_USART_Init-_USART_Init
  1238                           opt subtitle "HI-TECH Software Omniscient Code Generator (Lite mode) build 49521"
  1239  0066                     _USART_Init:	
  1240                           opt subtitle "HI-TECH Software Omniscient Code Generator (Lite mode) build 49521"
  1241                           
  1242                           opt pagewidth 120
  1243                           
  1244  0066                     l961:	
  1245                           opt subtitle "HI-TECH Software Omniscient Code Generator (Lite mode) build 49521"
  1246  0066  1683               	bsf	status, 5	;RP0=1, select bank1
  1247  0067  1303               	bcf	status, 6	;RP1=0, select bank1
  1248  0068  1787               	bsf	(1087/8)^080h,(1087)&7	;volatile
  1249                           opt subtitle "HI-TECH Software Omniscient Code Generator (Lite mode) build 49521"
  1250                           
  1251  0069  1307               	bcf	(1086/8)^080h,(1086)&7	;volatile
  1252                           opt subtitle "HI-TECH Software Omniscient Code Generator (Lite mode) build 49521"
  1253                           
  1254  006A  1218               	bcf	(1220/8)^080h,(1220)&7	;volatile
  1255                           opt subtitle "HI-TECH Software Omniscient Code Generator (Lite mode) build 49521"
  1256                           
  1257  006B  1518               	bsf	(1218/8)^080h,(1218)&7	;volatile
  1258                           opt subtitle "HI-TECH Software Omniscient Code Generator (Lite mode) build 49521"
  1259                           
  1260  006C  1683               	bsf	status, 5	;RP0=1, select bank3
  1261  006D  1703               	bsf	status, 6	;RP1=1, select bank3
  1262  006E  1187               	bcf	(3131/8)^0180h,(3131)&7	;volatile
  1263                           opt subtitle "HI-TECH Software Omniscient Code Generator (Lite mode) build 49521"
  1264                           
  1265  006F  1683               	bsf	status, 5	;RP0=1, select bank1
  1266  0070  1303               	bcf	status, 6	;RP1=0, select bank1
  1267  0071  1318               	bcf	(1222/8)^080h,(1222)&7	;volatile
  1268                           opt subtitle "HI-TECH Software Omniscient Code Generator (Lite mode) build 49521"
  1269                           
  1270  0072  1283               	bcf	status, 5	;RP0=0, select bank0
  1271  0073  1303               	bcf	status, 6	;RP1=0, select bank0
  1272  0074  1318               	bcf	(198/8),(198)&7	;volatile
  1273                           opt subtitle "HI-TECH Software Omniscient Code Generator (Lite mode) build 49521"
  1274                           
  1275  0075                     l963:	
  1276                           opt subtitle "HI-TECH Software Omniscient Code Generator (Lite mode) build 49521"
  1277  0075  120A  118A  2015   	fcall	_Set_SPBRG
              120A  118A         
  1278                           opt subtitle "HI-TECH Software Omniscient Code Generator (Lite mode) build 49521"
  1279                           
  1280  007A                     l965:	
  1281                           opt subtitle "HI-TECH Software Omniscient Code Generator (Lite mode) build 49521"
  1282  007A  1683               	bsf	status, 5	;RP0=1, select bank1
  1283  007B  1303               	bcf	status, 6	;RP1=0, select bank1
  1284  007C  019A               	clrf	(154)^080h	;volatile
  1285                           opt subtitle "HI-TECH Software Omniscient Code Generator (Lite mode) build 49521"
  1286                           
  1287  007D                     l967:	
  1288                           opt subtitle "HI-TECH Software Omniscient Code Generator (Lite mode) build 49521"
  1289  007D  1283               	bcf	status, 5	;RP0=0, select bank0
  1290  007E  1303               	bcf	status, 6	;RP1=0, select bank0
  1291  007F  1798               	bsf	(199/8),(199)&7	;volatile
  1292                           opt subtitle "HI-TECH Software Omniscient Code Generator (Lite mode) build 49521"
  1293                           
  1294  0080                     l969:	
  1295                           opt subtitle "HI-TECH Software Omniscient Code Generator (Lite mode) build 49521"
  1296  0080  1618               	bsf	(196/8),(196)&7	;volatile
  1297                           opt subtitle "HI-TECH Software Omniscient Code Generator (Lite mode) build 49521"
  1298                           
  1299  0081                     l971:	
  1300                           opt subtitle "HI-TECH Software Omniscient Code Generator (Lite mode) build 49521"
  1301  0081  1683               	bsf	status, 5	;RP0=1, select bank1
  1302  0082  1303               	bcf	status, 6	;RP1=0, select bank1
  1303  0083  120C               	bcf	(1124/8)^080h,(1124)&7	;volatile
  1304                           opt subtitle "HI-TECH Software Omniscient Code Generator (Lite mode) build 49521"
  1305                           
  1306  0084                     l973:	
  1307                           opt subtitle "HI-TECH Software Omniscient Code Generator (Lite mode) build 49521"
  1308  0084  1283               	bcf	status, 5	;RP0=0, select bank0
  1309  0085  1303               	bcf	status, 6	;RP1=0, select bank0
  1310  0086  0821               	movf	(USART_Init@receiveInterupts+1),w
  1311  0087  0420               	iorwf	(USART_Init@receiveInterupts),w
  1312  0088  1903               	skipnz
  1313  0089  288B               	goto	u251
  1314  008A  288C               	goto	u250
  1315  008B                     u251:
  1316  008B  2892               	goto	l92
  1317  008C                     u250:
  1318                           opt subtitle "HI-TECH Software Omniscient Code Generator (Lite mode) build 49521"
  1319                           
  1320  008C                     l975:	
  1321                           opt subtitle "HI-TECH Software Omniscient Code Generator (Lite mode) build 49521"
  1322                           
  1323  008C  1683               	bsf	status, 5	;RP0=1, select bank1
  1324  008D  1303               	bcf	status, 6	;RP1=0, select bank1
  1325  008E  168C               	bsf	(1125/8)^080h,(1125)&7	;volatile
  1326                           opt subtitle "HI-TECH Software Omniscient Code Generator (Lite mode) build 49521"
  1327                           
  1328  008F  178B               	bsf	(95/8),(95)&7	;volatile
  1329                           opt subtitle "HI-TECH Software Omniscient Code Generator (Lite mode) build 49521"
  1330                           
  1331  0090  170B               	bsf	(94/8),(94)&7	;volatile
  1332                           opt subtitle "HI-TECH Software Omniscient Code Generator (Lite mode) build 49521"
  1333                           
  1334  0091  2895               	goto	l93
  1335                           opt subtitle "HI-TECH Software Omniscient Code Generator (Lite mode) build 49521"
  1336                           
  1337  0092                     l92:	
  1338                           opt subtitle "HI-TECH Software Omniscient Code Generator (Lite mode) build 49521"
  1339                           
  1340                           opt pagewidth 120
  1341                           
  1342  0092  1683               	bsf	status, 5	;RP0=1, select bank1
  1343  0093  1303               	bcf	status, 6	;RP1=0, select bank1
  1344  0094  128C               	bcf	(1125/8)^080h,(1125)&7	;volatile
  1345                           opt subtitle "HI-TECH Software Omniscient Code Generator (Lite mode) build 49521"
  1346                           
  1347  0095                     l93:	
  1348                           opt subtitle "HI-TECH Software Omniscient Code Generator (Lite mode) build 49521"
  1349                           
  1350                           opt pagewidth 120
  1351  0095  1298               	bcf	(1221/8)^080h,(1221)&7	;volatile
  1352                           opt subtitle "HI-TECH Software Omniscient Code Generator (Lite mode) build 49521"
  1353                           
  1354  0096  1698               	bsf	(1221/8)^080h,(1221)&7	;volatile
  1355                           opt subtitle "HI-TECH Software Omniscient Code Generator (Lite mode) build 49521"
  1356                           
  1357                           opt pagewidth 120
  1358  0097                     l94:	
  1359  0097  0008               	return
  1360                           opt subtitle "HI-TECH Software Omniscient Code Generator (Lite mode) build 49521"
  1361                           
  1362  0098                     	__end_of_USART_Init:
  1363                           opt subtitle "HI-TECH Software Omniscient Code Generator (Lite mode) build 49521"
  1364                           
  1365                           opt pagewidth 120
  1366                           
  1367                           	opt lm
  1368                           
  1369                           	processor	16F886
  1370                           clrc	macro
  1371                           	bcf	3,0
  1372                           	endm
  1373                           clrz	macro
  1374                           	bcf	3,2
  1375                           	endm
  1376                           setc	macro
  1377                           	bsf	3,0
  1378                           	endm
  1379                           setz	macro
  1380                           	bsf	3,2
  1381                           	endm
  1382                           skipc	macro
  1383                           	btfss	3,0
  1384                           	endm
  1385                           skipz	macro
  1386                           	btfss	3,2
  1387                           	endm
  1388                           skipnc	macro
  1389                           	btfsc	3,0
  1390                           	endm
  1391                           skipnz	macro
  1392                           	btfsc	3,2
  1393                           	endm
  1394                           indf	equ	0
  1395                           indf0	equ	0
  1396                           pc	equ	2
  1397  0119                     __ptext227:	;psect for function _motorInit
  1398                           opt subtitle "HI-TECH Software Omniscient Code Generator (Lite mode) build 49521"
  1399                           
  1400                           opt pagewidth 120
  1401                           
  1402  0012                     	__size_of_motorInit	equ	__end_of_motorInit-_motorInit
  1403                           opt subtitle "HI-TECH Software Omniscient Code Generator (Lite mode) build 49521"
  1404  0119                     _motorInit:	
  1405                           opt subtitle "HI-TECH Software Omniscient Code Generator (Lite mode) build 49521"
  1406                           
  1407                           opt pagewidth 120
  1408                           
  1409  0119                     l977:	
  1410                           opt subtitle "HI-TECH Software Omniscient Code Generator (Lite mode) build 49521"
  1411  0119  1683               	bsf	status, 5	;RP0=1, select bank1
  1412  011A  1303               	bcf	status, 6	;RP1=0, select bank1
  1413  011B  1005               	bcf	(1064/8)^080h,(1064)&7	;volatile
  1414                           opt subtitle "HI-TECH Software Omniscient Code Generator (Lite mode) build 49521"
  1415                           
  1416  011C  1085               	bcf	(1065/8)^080h,(1065)&7	;volatile
  1417                           opt subtitle "HI-TECH Software Omniscient Code Generator (Lite mode) build 49521"
  1418                           
  1419  011D  1105               	bcf	(1066/8)^080h,(1066)&7	;volatile
  1420                           opt subtitle "HI-TECH Software Omniscient Code Generator (Lite mode) build 49521"
  1421                           
  1422  011E  1185               	bcf	(1067/8)^080h,(1067)&7	;volatile
  1423                           opt subtitle "HI-TECH Software Omniscient Code Generator (Lite mode) build 49521"
  1424                           
  1425  011F  1283               	bcf	status, 5	;RP0=0, select bank0
  1426  0120  1303               	bcf	status, 6	;RP1=0, select bank0
  1427  0121  1405               	bsf	(40/8),(40)&7	;volatile
  1428                           opt subtitle "HI-TECH Software Omniscient Code Generator (Lite mode) build 49521"
  1429                           
  1430  0122  1085               	bcf	(41/8),(41)&7	;volatile
  1431                           opt subtitle "HI-TECH Software Omniscient Code Generator (Lite mode) build 49521"
  1432                           
  1433  0123  1505               	bsf	(42/8),(42)&7	;volatile
  1434                           opt subtitle "HI-TECH Software Omniscient Code Generator (Lite mode) build 49521"
  1435                           
  1436  0124  1185               	bcf	(43/8),(43)&7	;volatile
  1437                           opt subtitle "HI-TECH Software Omniscient Code Generator (Lite mode) build 49521"
  1438                           
  1439  0125                     l979:	
  1440                           opt subtitle "HI-TECH Software Omniscient Code Generator (Lite mode) build 49521"
  1441  0125  120A  118A  20BF   	fcall	_pwmInit
              120A  118A         
  1442                           opt subtitle "HI-TECH Software Omniscient Code Generator (Lite mode) build 49521"
  1443                           
  1444  012A                     l186:	
  1445  012A  0008               	return
  1446                           opt subtitle "HI-TECH Software Omniscient Code Generator (Lite mode) build 49521"
  1447                           
  1448  012B                     	__end_of_motorInit:
  1449                           opt subtitle "HI-TECH Software Omniscient Code Generator (Lite mode) build 49521"
  1450                           
  1451                           opt pagewidth 120
  1452                           
  1453                           	opt lm
  1454                           
  1455                           	processor	16F886
  1456                           clrc	macro
  1457                           	bcf	3,0
  1458                           	endm
  1459                           clrz	macro
  1460                           	bcf	3,2
  1461                           	endm
  1462                           setc	macro
  1463                           	bsf	3,0
  1464                           	endm
  1465                           setz	macro
  1466                           	bsf	3,2
  1467                           	endm
  1468                           skipc	macro
  1469                           	btfss	3,0
  1470                           	endm
  1471                           skipz	macro
  1472                           	btfss	3,2
  1473                           	endm
  1474                           skipnc	macro
  1475                           	btfsc	3,0
  1476                           	endm
  1477                           skipnz	macro
  1478                           	btfsc	3,2
  1479                           	endm
  1480                           indf	equ	0
  1481                           indf0	equ	0
  1482                           pc	equ	2
  1483  0015                     __ptext228:	;psect for function _Set_SPBRG
  1484                           opt subtitle "HI-TECH Software Omniscient Code Generator (Lite mode) build 49521"
  1485                           
  1486                           opt pagewidth 120
  1487                           
  1488  0051                     	__size_of_Set_SPBRG	equ	__end_of_Set_SPBRG-_Set_SPBRG
  1489                           opt subtitle "HI-TECH Software Omniscient Code Generator (Lite mode) build 49521"
  1490  0015                     _Set_SPBRG:	
  1491                           opt subtitle "HI-TECH Software Omniscient Code Generator (Lite mode) build 49521"
  1492                           
  1493                           opt pagewidth 120
  1494                           
  1495  0015                     l981:	
  1496                           opt subtitle "HI-TECH Software Omniscient Code Generator (Lite mode) build 49521"
  1497                           
  1498  0015  1683               	bsf	status, 5	;RP0=1, select bank1
  1499  0016  1303               	bcf	status, 6	;RP1=0, select bank1
  1500  0017  1D18               	btfss	(1218/8)^080h,(1218)&7	;volatile
  1501  0018  281A               	goto	u261
  1502  0019  281B               	goto	u260
  1503  001A                     u261:
  1504  001A  2865               	goto	l107
  1505  001B                     u260:
  1506                           opt subtitle "HI-TECH Software Omniscient Code Generator (Lite mode) build 49521"
  1507  001B                     l983:	
  1508  001B  1683               	bsf	status, 5	;RP0=1, select bank3
  1509  001C  1703               	bsf	status, 6	;RP1=1, select bank3
  1510  001D  1987               	btfsc	(3131/8)^0180h,(3131)&7	;volatile
  1511  001E  2820               	goto	u271
  1512  001F  2821               	goto	u270
  1513  0020                     u271:
  1514  0020  2865               	goto	l107
  1515  0021                     u270:
  1516  0021  2839               	goto	l999
  1517                           opt subtitle "HI-TECH Software Omniscient Code Generator (Lite mode) build 49521"
  1518                           
  1519  0022                     l985:	
  1520                           opt subtitle "HI-TECH Software Omniscient Code Generator (Lite mode) build 49521"
  1521                           
  1522  0022  2839               	goto	l999
  1523                           opt subtitle "HI-TECH Software Omniscient Code Generator (Lite mode) build 49521"
  1524                           
  1525                           opt pagewidth 120
  1526                           
  1527  0023                     l100:	
  1528                           opt subtitle "HI-TECH Software Omniscient Code Generator (Lite mode) build 49521"
  1529  0023                     l987:	
  1530  0023  30CF               	movlw	(0CFh)
  1531  0024  1303               	bcf	status, 6	;RP1=0, select bank1
  1532  0025  0099               	movwf	(153)^080h	;volatile
  1533  0026  2865               	goto	l107
  1534                           opt subtitle "HI-TECH Software Omniscient Code Generator (Lite mode) build 49521"
  1535                           
  1536                           opt pagewidth 120
  1537  0027                     l102:	
  1538                           opt subtitle "HI-TECH Software Omniscient Code Generator (Lite mode) build 49521"
  1539  0027                     l989:	
  1540  0027  3067               	movlw	(067h)
  1541  0028  1303               	bcf	status, 6	;RP1=0, select bank1
  1542  0029  0099               	movwf	(153)^080h	;volatile
  1543  002A  2865               	goto	l107
  1544                           opt subtitle "HI-TECH Software Omniscient Code Generator (Lite mode) build 49521"
  1545                           
  1546                           opt pagewidth 120
  1547  002B                     l103:	
  1548                           opt subtitle "HI-TECH Software Omniscient Code Generator (Lite mode) build 49521"
  1549  002B                     l991:	
  1550  002B  3019               	movlw	(019h)
  1551  002C  1303               	bcf	status, 6	;RP1=0, select bank1
  1552  002D  0099               	movwf	(153)^080h	;volatile
  1553  002E  2865               	goto	l107
  1554                           opt subtitle "HI-TECH Software Omniscient Code Generator (Lite mode) build 49521"
  1555                           
  1556                           opt pagewidth 120
  1557  002F                     l104:	
  1558                           opt subtitle "HI-TECH Software Omniscient Code Generator (Lite mode) build 49521"
  1559  002F                     l993:	
  1560  002F  3017               	movlw	(017h)
  1561  0030  1303               	bcf	status, 6	;RP1=0, select bank1
  1562  0031  0099               	movwf	(153)^080h	;volatile
  1563  0032  2865               	goto	l107
  1564                           opt subtitle "HI-TECH Software Omniscient Code Generator (Lite mode) build 49521"
  1565                           
  1566                           opt pagewidth 120
  1567  0033                     l105:	
  1568                           opt subtitle "HI-TECH Software Omniscient Code Generator (Lite mode) build 49521"
  1569  0033                     l995:	
  1570  0033  300C               	movlw	(0Ch)
  1571  0034  1303               	bcf	status, 6	;RP1=0, select bank1
  1572  0035  0099               	movwf	(153)^080h	;volatile
  1573  0036  2865               	goto	l107
  1574                           opt subtitle "HI-TECH Software Omniscient Code Generator (Lite mode) build 49521"
  1575                           
  1576                           opt pagewidth 120
  1577  0037                     l106:	
  1578  0037  2865               	goto	l107
  1579                           opt subtitle "HI-TECH Software Omniscient Code Generator (Lite mode) build 49521"
  1580                           
  1581  0038                     l997:	
  1582                           opt subtitle "HI-TECH Software Omniscient Code Generator (Lite mode) build 49521"
  1583  0038  2865               	goto	l107
  1584                           opt subtitle "HI-TECH Software Omniscient Code Generator (Lite mode) build 49521"
  1585                           
  1586  0039                     l99:	
  1587                           opt subtitle "HI-TECH Software Omniscient Code Generator (Lite mode) build 49521"
  1588  0039                     l999:	
  1589                           opt subtitle "HI-TECH Software Omniscient Code Generator (Lite mode) build 49521"
  1590                           
  1591                           opt pagewidth 120
  1592                           
  1593                           	opt lm
  1594                           
  1595                           	processor	16F886
  1596                           clrc	macro
  1597                           	bcf	3,0
  1598                           	endm
  1599  0039  3025               	movlw high(02580h)
  1600                           opt subtitle "HI-TECH Software Omniscient Code Generator (Lite mode) build 49521"
  1601  003A  3A04               	xorlw	4^0	; case 4
  1602  003B  1903               	skipnz
  1603  003C  284A               	goto	l1193
  1604  003D  3A0D               	xorlw	9^4	; case 9
  1605  003E  1903               	skipnz
  1606  003F  284F               	goto	l1195
  1607  0040  3A2C               	xorlw	37^9	; case 37
  1608  0041  1903               	skipnz
  1609  0042  2854               	goto	l1197
  1610  0043  3A0D               	xorlw	40^37	; case 40
  1611  0044  1903               	skipnz
  1612  0045  2859               	goto	l1199
  1613  0046  3A63               	xorlw	75^40	; case 75
  1614  0047  1903               	skipnz
  1615  0048  285E               	goto	l1201
  1616  0049  2865               	goto	l107
  1617                           opt subtitle "HI-TECH Software Omniscient Code Generator (Lite mode) build 49521"
  1618                           
  1619  004A                     l1193:	
  1620                           opt subtitle "HI-TECH Software Omniscient Code Generator (Lite mode) build 49521"
  1621                           
  1622                           opt pagewidth 120
  1623                           
  1624                           	opt lm
  1625                           
  1626                           	processor	16F886
  1627                           clrc	macro
  1628                           	bcf	3,0
  1629  004A  3080               	movlw low(02580h)
  1630                           opt subtitle "HI-TECH Software Omniscient Code Generator (Lite mode) build 49521"
  1631  004B  3AB0               	xorlw	176^0	; case 176
  1632  004C  1903               	skipnz
  1633  004D  2823               	goto	l987
  1634  004E  2865               	goto	l107
  1635                           opt subtitle "HI-TECH Software Omniscient Code Generator (Lite mode) build 49521"
  1636                           
  1637  004F                     l1195:	
  1638                           opt subtitle "HI-TECH Software Omniscient Code Generator (Lite mode) build 49521"
  1639                           
  1640                           opt pagewidth 120
  1641                           
  1642                           	opt lm
  1643                           
  1644                           	processor	16F886
  1645                           clrc	macro
  1646                           	bcf	3,0
  1647  004F  3080               	movlw low(02580h)
  1648                           opt subtitle "HI-TECH Software Omniscient Code Generator (Lite mode) build 49521"
  1649  0050  3A60               	xorlw	96^0	; case 96
  1650  0051  1903               	skipnz
  1651  0052  2827               	goto	l989
  1652  0053  2865               	goto	l107
  1653                           opt subtitle "HI-TECH Software Omniscient Code Generator (Lite mode) build 49521"
  1654                           
  1655  0054                     l1197:	
  1656                           opt subtitle "HI-TECH Software Omniscient Code Generator (Lite mode) build 49521"
  1657                           
  1658                           opt pagewidth 120
  1659                           
  1660                           	opt lm
  1661                           
  1662                           	processor	16F886
  1663                           clrc	macro
  1664                           	bcf	3,0
  1665  0054  3080               	movlw low(02580h)
  1666                           opt subtitle "HI-TECH Software Omniscient Code Generator (Lite mode) build 49521"
  1667  0055  3A80               	xorlw	128^0	; case 128
  1668  0056  1903               	skipnz
  1669  0057  282B               	goto	l991
  1670  0058  2865               	goto	l107
  1671                           opt subtitle "HI-TECH Software Omniscient Code Generator (Lite mode) build 49521"
  1672                           
  1673  0059                     l1199:	
  1674                           opt subtitle "HI-TECH Software Omniscient Code Generator (Lite mode) build 49521"
  1675                           
  1676                           opt pagewidth 120
  1677                           
  1678                           	opt lm
  1679                           
  1680                           	processor	16F886
  1681                           clrc	macro
  1682                           	bcf	3,0
  1683  0059  3080               	movlw low(02580h)
  1684                           opt subtitle "HI-TECH Software Omniscient Code Generator (Lite mode) build 49521"
  1685  005A  3AB1               	xorlw	177^0	; case 177
  1686  005B  1903               	skipnz
  1687  005C  282F               	goto	l993
  1688  005D  2865               	goto	l107
  1689                           opt subtitle "HI-TECH Software Omniscient Code Generator (Lite mode) build 49521"
  1690                           
  1691  005E                     l1201:	
  1692                           opt subtitle "HI-TECH Software Omniscient Code Generator (Lite mode) build 49521"
  1693                           
  1694                           opt pagewidth 120
  1695                           
  1696                           	opt lm
  1697                           
  1698                           	processor	16F886
  1699                           clrc	macro
  1700                           	bcf	3,0
  1701                           	endm
  1702                           clrz	macro
  1703                           	bcf	3,2
  1704  005E  3080               	movlw low(02580h)
  1705                           opt subtitle "HI-TECH Software Omniscient Code Generator (Lite mode) build 49521"
  1706  005F  3A00               	xorlw	0^0	; case 0
  1707  0060  1903               	skipnz
  1708  0061  2833               	goto	l995
  1709  0062  2865               	goto	l107
  1710                           opt subtitle "HI-TECH Software Omniscient Code Generator (Lite mode) build 49521"
  1711                           
  1712                           opt pagewidth 120
  1713                           
  1714  0063                     l101:	
  1715  0063  2865               	goto	l107
  1716                           opt subtitle "HI-TECH Software Omniscient Code Generator (Lite mode) build 49521"
  1717                           
  1718  0064                     l98:	
  1719  0064  2865               	goto	l107
  1720                           opt subtitle "HI-TECH Software Omniscient Code Generator (Lite mode) build 49521"
  1721                           
  1722  0065                     l97:	
  1723                           opt subtitle "HI-TECH Software Omniscient Code Generator (Lite mode) build 49521"
  1724                           
  1725                           opt pagewidth 120
  1726                           
  1727                           	opt lm
  1728  0065                     l107:	
  1729  0065  0008               	return
  1730                           opt subtitle "HI-TECH Software Omniscient Code Generator (Lite mode) build 49521"
  1731                           
  1732  0066                     	__end_of_Set_SPBRG:
  1733                           opt subtitle "HI-TECH Software Omniscient Code Generator (Lite mode) build 49521"
  1734                           
  1735                           opt pagewidth 120
  1736                           
  1737                           	opt lm
  1738                           
  1739                           	processor	16F886
  1740                           clrc	macro
  1741                           	bcf	3,0
  1742                           	endm
  1743                           clrz	macro
  1744                           	bcf	3,2
  1745                           	endm
  1746                           setc	macro
  1747                           	bsf	3,0
  1748                           	endm
  1749                           setz	macro
  1750                           	bsf	3,2
  1751                           	endm
  1752                           skipc	macro
  1753                           	btfss	3,0
  1754                           	endm
  1755                           skipz	macro
  1756                           	btfss	3,2
  1757                           	endm
  1758                           skipnc	macro
  1759                           	btfsc	3,0
  1760                           	endm
  1761                           skipnz	macro
  1762                           	btfsc	3,2
  1763                           	endm
  1764                           indf	equ	0
  1765                           indf0	equ	0
  1766                           pc	equ	2
  1767  00BF                     __ptext229:	;psect for function _pwmInit
  1768                           opt subtitle "HI-TECH Software Omniscient Code Generator (Lite mode) build 49521"
  1769                           
  1770                           opt pagewidth 120
  1771                           
  1772  001F                     	__size_of_pwmInit	equ	__end_of_pwmInit-_pwmInit
  1773                           opt subtitle "HI-TECH Software Omniscient Code Generator (Lite mode) build 49521"
  1774  00BF                     _pwmInit:	
  1775                           opt subtitle "HI-TECH Software Omniscient Code Generator (Lite mode) build 49521"
  1776                           
  1777                           opt pagewidth 120
  1778                           
  1779  00BF                     l1065:	
  1780                           opt subtitle "HI-TECH Software Omniscient Code Generator (Lite mode) build 49521"
  1781  00BF  1683               	bsf	status, 5	;RP0=1, select bank1
  1782  00C0  1303               	bcf	status, 6	;RP1=0, select bank1
  1783  00C1  1487               	bsf	(1081/8)^080h,(1081)&7	;volatile
  1784                           opt subtitle "HI-TECH Software Omniscient Code Generator (Lite mode) build 49521"
  1785                           
  1786  00C2  1507               	bsf	(1082/8)^080h,(1082)&7	;volatile
  1787                           opt subtitle "HI-TECH Software Omniscient Code Generator (Lite mode) build 49521"
  1788                           
  1789  00C3                     l1067:	
  1790                           opt subtitle "HI-TECH Software Omniscient Code Generator (Lite mode) build 49521"
  1791  00C3  30FF               	movlw	(0FFh)
  1792  00C4  0092               	movwf	(146)^080h	;volatile
  1793                           opt subtitle "HI-TECH Software Omniscient Code Generator (Lite mode) build 49521"
  1794                           
  1795  00C5  30FF               	movlw	(0FFh)
  1796  00C6  1283               	bcf	status, 5	;RP0=0, select bank0
  1797  00C7  1303               	bcf	status, 6	;RP1=0, select bank0
  1798  00C8  0095               	movwf	(21)	;volatile
  1799                           opt subtitle "HI-TECH Software Omniscient Code Generator (Lite mode) build 49521"
  1800                           
  1801  00C9  30FF               	movlw	(0FFh)
  1802  00CA  009B               	movwf	(27)	;volatile
  1803                           opt subtitle "HI-TECH Software Omniscient Code Generator (Lite mode) build 49521"
  1804                           
  1805  00CB  300C               	movlw	(0Ch)
  1806  00CC  0097               	movwf	(23)	;volatile
  1807                           opt subtitle "HI-TECH Software Omniscient Code Generator (Lite mode) build 49521"
  1808                           
  1809  00CD  300C               	movlw	(0Ch)
  1810  00CE  009D               	movwf	(29)	;volatile
  1811                           opt subtitle "HI-TECH Software Omniscient Code Generator (Lite mode) build 49521"
  1812                           
  1813  00CF                     l1069:	
  1814                           opt subtitle "HI-TECH Software Omniscient Code Generator (Lite mode) build 49521"
  1815  00CF  1683               	bsf	status, 5	;RP0=1, select bank1
  1816  00D0  1303               	bcf	status, 6	;RP1=0, select bank1
  1817  00D1  1087               	bcf	(1081/8)^080h,(1081)&7	;volatile
  1818                           opt subtitle "HI-TECH Software Omniscient Code Generator (Lite mode) build 49521"
  1819                           
  1820  00D2                     l1071:	
  1821                           opt subtitle "HI-TECH Software Omniscient Code Generator (Lite mode) build 49521"
  1822  00D2  1107               	bcf	(1082/8)^080h,(1082)&7	;volatile
  1823                           opt subtitle "HI-TECH Software Omniscient Code Generator (Lite mode) build 49521"
  1824                           
  1825  00D3                     l1073:	
  1826                           opt subtitle "HI-TECH Software Omniscient Code Generator (Lite mode) build 49521"
  1827  00D3  1283               	bcf	status, 5	;RP0=0, select bank0
  1828  00D4  1303               	bcf	status, 6	;RP1=0, select bank0
  1829  00D5  108C               	bcf	(97/8),(97)&7	;volatile
  1830                           opt subtitle "HI-TECH Software Omniscient Code Generator (Lite mode) build 49521"
  1831                           
  1832  00D6                     l1075:	
  1833                           opt subtitle "HI-TECH Software Omniscient Code Generator (Lite mode) build 49521"
  1834  00D6  1683               	bsf	status, 5	;RP0=1, select bank1
  1835  00D7  1303               	bcf	status, 6	;RP1=0, select bank1
  1836  00D8  108C               	bcf	(1121/8)^080h,(1121)&7	;volatile
  1837                           opt subtitle "HI-TECH Software Omniscient Code Generator (Lite mode) build 49521"
  1838                           
  1839  00D9  3004               	movlw	(04h)
  1840  00DA  1283               	bcf	status, 5	;RP0=0, select bank0
  1841  00DB  1303               	bcf	status, 6	;RP1=0, select bank0
  1842  00DC  0092               	movwf	(18)	;volatile
  1843                           opt subtitle "HI-TECH Software Omniscient Code Generator (Lite mode) build 49521"
  1844                           
  1845  00DD                     l157:	
  1846  00DD  0008               	return
  1847                           opt subtitle "HI-TECH Software Omniscient Code Generator (Lite mode) build 49521"
  1848                           
  1849  00DE                     	__end_of_pwmInit:
  1850                           opt subtitle "HI-TECH Software Omniscient Code Generator (Lite mode) build 49521"
  1851                           
  1852                           opt pagewidth 120
  1853                           
  1854                           	opt lm
  1855                           
  1856                           	processor	16F886
  1857                           clrc	macro
  1858                           	bcf	3,0
  1859                           	endm
  1860                           clrz	macro
  1861                           	bcf	3,2
  1862                           	endm
  1863                           setc	macro
  1864                           	bsf	3,0
  1865                           	endm
  1866                           setz	macro
  1867                           	bsf	3,2
  1868                           	endm
  1869                           skipc	macro
  1870                           	btfss	3,0
  1871                           	endm
  1872                           skipz	macro
  1873                           	btfss	3,2
  1874                           	endm
  1875                           skipnc	macro
  1876                           	btfsc	3,0
  1877                           	endm
  1878                           skipnz	macro
  1879                           	btfsc	3,2
  1880                           	endm
  1881                           indf	equ	0
  1882                           indf0	equ	0
  1883                           pc	equ	2
  1884  00DE                     __ptext230:	;psect for function _isr
  1885                           opt subtitle "HI-TECH Software Omniscient Code Generator (Lite mode) build 49521"
  1886                           
  1887                           opt pagewidth 120
  1888                           
  1889  001E                     	__size_of_isr	equ	__end_of_isr-_isr
  1890                           opt subtitle "HI-TECH Software Omniscient Code Generator (Lite mode) build 49521"
  1891  00DE                     _isr:	
  1892                           opt subtitle "HI-TECH Software Omniscient Code Generator (Lite mode) build 49521"
  1893                           
  1894                           opt pagewidth 120
  1895                           
  1896  0004                     __pintentry:
  1897                           opt subtitle "HI-TECH Software Omniscient Code Generator (Lite mode) build 49521"
  1898  0004                     interrupt_function:
  1899                           opt subtitle "HI-TECH Software Omniscient Code Generator (Lite mode) build 49521"
  1900  007E                     	saved_w	set	btemp+0
  1901  0004  00FE               	movwf	saved_w
  1902  0005  0E03               	swapf	status,w
  1903  0006  00F3               	movwf	(??_isr+1)
  1904  0007  0804               	movf	fsr0,w
  1905  0008  00F4               	movwf	(??_isr+2)
  1906  0009  080A               	movf	pclath,w
  1907  000A  00F5               	movwf	(??_isr+3)
  1908  000B  1283               	bcf	status, 5	;RP0=0, select bank0
  1909  000C  1303               	bcf	status, 6	;RP1=0, select bank0
  1910  000D  087F               	movf	btemp+1,w
  1911  000E  00F6               	movwf	(??_isr+4)
  1912  000F  120A  118A  28DE   	ljmp	_isr
  1913                           opt subtitle "HI-TECH Software Omniscient Code Generator (Lite mode) build 49521"
  1914                           
  1915                           opt pagewidth 120
  1916  00DE                     i1l1085:	
  1917                           opt subtitle "HI-TECH Software Omniscient Code Generator (Lite mode) build 49521"
  1918  00DE  138B               	bcf	(95/8),(95)&7	;volatile
  1919                           opt subtitle "HI-TECH Software Omniscient Code Generator (Lite mode) build 49521"
  1920                           
  1921  00DF  120B               	bcf	(92/8),(92)&7	;volatile
  1922                           opt subtitle "HI-TECH Software Omniscient Code Generator (Lite mode) build 49521"
  1923                           
  1924  00E0  1E8C               	btfss	(101/8),(101)&7	;volatile
  1925  00E1  28E3               	goto	u36_21
  1926  00E2  28E4               	goto	u36_20
  1927  00E3                     u36_21:
  1928  00E3  28EF               	goto	i1l1089
  1929  00E4                     u36_20:
  1930                           opt subtitle "HI-TECH Software Omniscient Code Generator (Lite mode) build 49521"
  1931                           
  1932  00E4                     i1l1087:	
  1933                           opt subtitle "HI-TECH Software Omniscient Code Generator (Lite mode) build 49521"
  1934                           
  1935  00E4  120A  118A  212B   	fcall	_get_USART_char
              120A  118A         
  1936  00E9  00F2               	movwf	(??_isr+0)+0
  1937  00EA  0872               	movf	(??_isr+0)+0,w
  1938  00EB  1283               	bcf	status, 5	;RP0=0, select bank0
  1939  00EC  1303               	bcf	status, 6	;RP1=0, select bank0
  1940  00ED  00A6               	movwf	(_command)
  1941  00EE  28EF               	goto	i1l1089
  1942                           opt subtitle "HI-TECH Software Omniscient Code Generator (Lite mode) build 49521"
  1943                           
  1944  00EF                     i1l27:	
  1945                           opt subtitle "HI-TECH Software Omniscient Code Generator (Lite mode) build 49521"
  1946                           
  1947  00EF                     i1l1089:	
  1948                           opt subtitle "HI-TECH Software Omniscient Code Generator (Lite mode) build 49521"
  1949                           
  1950  00EF  178B               	bsf	(95/8),(95)&7	;volatile
  1951                           opt subtitle "HI-TECH Software Omniscient Code Generator (Lite mode) build 49521"
  1952                           
  1953  00F0                     i1l1091:	
  1954                           opt subtitle "HI-TECH Software Omniscient Code Generator (Lite mode) build 49521"
  1955  00F0  160B               	bsf	(92/8),(92)&7	;volatile
  1956                           opt subtitle "HI-TECH Software Omniscient Code Generator (Lite mode) build 49521"
  1957                           
  1958  00F1                     i1l28:	
  1959  00F1  0876               	movf	(??_isr+4),w
  1960  00F2  00FF               	movwf	btemp+1
  1961  00F3  0875               	movf	(??_isr+3),w
  1962  00F4  008A               	movwf	pclath
  1963  00F5  0874               	movf	(??_isr+2),w
  1964  00F6  0084               	movwf	fsr0
  1965  00F7  0E73               	swapf	(??_isr+1)^0FFFFFF80h,w
  1966  00F8  0083               	movwf	status
  1967  00F9  0EFE               	swapf	saved_w,f
  1968  00FA  0E7E               	swapf	saved_w,w
  1969  00FB  0009               	retfie
  1970                           opt subtitle "HI-TECH Software Omniscient Code Generator (Lite mode) build 49521"
  1971                           
  1972  00FC                     	__end_of_isr:
  1973                           opt subtitle "HI-TECH Software Omniscient Code Generator (Lite mode) build 49521"
  1974                           
  1975                           opt pagewidth 120
  1976                           
  1977                           	opt lm
  1978                           
  1979                           	processor	16F886
  1980                           clrc	macro
  1981                           	bcf	3,0
  1982                           	endm
  1983                           clrz	macro
  1984                           	bcf	3,2
  1985                           	endm
  1986                           setc	macro
  1987                           	bsf	3,0
  1988                           	endm
  1989                           setz	macro
  1990                           	bsf	3,2
  1991                           	endm
  1992                           skipc	macro
  1993                           	btfss	3,0
  1994                           	endm
  1995                           skipz	macro
  1996                           	btfss	3,2
  1997                           	endm
  1998                           skipnc	macro
  1999                           	btfsc	3,0
  2000                           	endm
  2001                           skipnz	macro
  2002                           	btfsc	3,2
  2003                           	endm
  2004                           indf	equ	0
  2005                           indf0	equ	0
  2006                           pc	equ	2
  2007  012B                     __ptext231:	;psect for function _get_USART_char
  2008                           opt subtitle "HI-TECH Software Omniscient Code Generator (Lite mode) build 49521"
  2009                           
  2010                           opt pagewidth 120
  2011                           
  2012  000F                     	__size_of_get_USART_char	equ	__end_of_get_USART_char-_get_USART_char
  2013                           opt subtitle "HI-TECH Software Omniscient Code Generator (Lite mode) build 49521"
  2014  012B                     _get_USART_char:	
  2015                           opt subtitle "HI-TECH Software Omniscient Code Generator (Lite mode) build 49521"
  2016                           
  2017                           opt pagewidth 120
  2018                           
  2019                           	opt lm
  2020  012B                     i1l110:	
  2021                           opt subtitle "HI-TECH Software Omniscient Code Generator (Lite mode) build 49521"
  2022                           
  2023  012B                     i1l1077:	
  2024                           opt subtitle "HI-TECH Software Omniscient Code Generator (Lite mode) build 49521"
  2025  012B  120A  118A  20FC   	fcall	_clear_usart_errors
              120A  118A         
  2026                           opt subtitle "HI-TECH Software Omniscient Code Generator (Lite mode) build 49521"
  2027                           
  2028  0130                     i1l1079:	
  2029                           opt subtitle "HI-TECH Software Omniscient Code Generator (Lite mode) build 49521"
  2030  0130  1283               	bcf	status, 5	;RP0=0, select bank0
  2031  0131  1303               	bcf	status, 6	;RP1=0, select bank0
  2032  0132  1E8C               	btfss	(101/8),(101)&7	;volatile
  2033  0133  2935               	goto	u35_21
  2034  0134  2936               	goto	u35_20
  2035  0135                     u35_21:
  2036  0135  292B               	goto	i1l110
  2037  0136                     u35_20:
  2038  0136  2937               	goto	i1l1081
  2039                           opt subtitle "HI-TECH Software Omniscient Code Generator (Lite mode) build 49521"
  2040  0137                     i1l111:	
  2041                           opt subtitle "HI-TECH Software Omniscient Code Generator (Lite mode) build 49521"
  2042                           
  2043  0137                     i1l1081:	
  2044                           opt subtitle "HI-TECH Software Omniscient Code Generator (Lite mode) build 49521"
  2045  0137  081A               	movf	(26),w	;volatile
  2046  0138  2939               	goto	i1l112
  2047                           opt subtitle "HI-TECH Software Omniscient Code Generator (Lite mode) build 49521"
  2048  0139                     i1l1083:	
  2049                           opt subtitle "HI-TECH Software Omniscient Code Generator (Lite mode) build 49521"
  2050                           
  2051  0139                     i1l112:	
  2052  0139  0008               	return
  2053                           opt subtitle "HI-TECH Software Omniscient Code Generator (Lite mode) build 49521"
  2054                           
  2055  013A                     	__end_of_get_USART_char:
  2056                           opt subtitle "HI-TECH Software Omniscient Code Generator (Lite mode) build 49521"
  2057                           
  2058                           opt pagewidth 120
  2059                           
  2060                           	opt lm
  2061                           
  2062                           	processor	16F886
  2063                           clrc	macro
  2064                           	bcf	3,0
  2065                           	endm
  2066                           clrz	macro
  2067                           	bcf	3,2
  2068                           	endm
  2069                           setc	macro
  2070                           	bsf	3,0
  2071                           	endm
  2072                           setz	macro
  2073                           	bsf	3,2
  2074                           	endm
  2075                           skipc	macro
  2076                           	btfss	3,0
  2077                           	endm
  2078                           skipz	macro
  2079                           	btfss	3,2
  2080                           	endm
  2081                           skipnc	macro
  2082                           	btfsc	3,0
  2083                           	endm
  2084                           skipnz	macro
  2085                           	btfsc	3,2
  2086                           	endm
  2087                           indf	equ	0
  2088                           indf0	equ	0
  2089                           pc	equ	2
  2090                           pcl	equ	2
  2091  00FC                     __ptext232:	;psect for function _clear_usart_errors
  2092                           opt subtitle "HI-TECH Software Omniscient Code Generator (Lite mode) build 49521"
  2093                           
  2094                           opt pagewidth 120
  2095                           
  2096  001D                     	__size_of_clear_usart_errors	equ	__end_of_clear_usart_errors-_clear_usart_errors
  2097                           opt subtitle "HI-TECH Software Omniscient Code Generator (Lite mode) build 49521"
  2098  00FC                     _clear_usart_errors:	
  2099                           opt subtitle "HI-TECH Software Omniscient Code Generator (Lite mode) build 49521"
  2100                           
  2101                           opt pagewidth 120
  2102                           
  2103  00FC                     i1l1021:	
  2104                           opt subtitle "HI-TECH Software Omniscient Code Generator (Lite mode) build 49521"
  2105                           
  2106  00FC  1283               	bcf	status, 5	;RP0=0, select bank0
  2107  00FD  1303               	bcf	status, 6	;RP1=0, select bank0
  2108  00FE  1C98               	btfss	(193/8),(193)&7	;volatile
  2109  00FF  2901               	goto	u28_21
  2110  0100  2902               	goto	u28_20
  2111  0101                     u28_21:
  2112  0101  290A               	goto	i1l132
  2113  0102                     u28_20:
  2114                           opt subtitle "HI-TECH Software Omniscient Code Generator (Lite mode) build 49521"
  2115                           
  2116  0102                     i1l1023:	
  2117                           opt subtitle "HI-TECH Software Omniscient Code Generator (Lite mode) build 49521"
  2118                           
  2119  0102  1683               	bsf	status, 5	;RP0=1, select bank1
  2120  0103  1303               	bcf	status, 6	;RP1=0, select bank1
  2121  0104  1298               	bcf	(1221/8)^080h,(1221)&7	;volatile
  2122                           opt subtitle "HI-TECH Software Omniscient Code Generator (Lite mode) build 49521"
  2123                           
  2124  0105  1698               	bsf	(1221/8)^080h,(1221)&7	;volatile
  2125                           opt subtitle "HI-TECH Software Omniscient Code Generator (Lite mode) build 49521"
  2126                           
  2127  0106  1283               	bcf	status, 5	;RP0=0, select bank0
  2128  0107  1303               	bcf	status, 6	;RP1=0, select bank0
  2129  0108  1218               	bcf	(196/8),(196)&7	;volatile
  2130                           opt subtitle "HI-TECH Software Omniscient Code Generator (Lite mode) build 49521"
  2131                           
  2132  0109  1618               	bsf	(196/8),(196)&7	;volatile
  2133                           opt subtitle "HI-TECH Software Omniscient Code Generator (Lite mode) build 49521"
  2134                           
  2135  010A                     i1l132:	
  2136                           opt subtitle "HI-TECH Software Omniscient Code Generator (Lite mode) build 49521"
  2137                           
  2138                           opt pagewidth 120
  2139  010A  1D18               	btfss	(194/8),(194)&7	;volatile
  2140  010B  290D               	goto	u29_21
  2141  010C  290E               	goto	u29_20
  2142  010D                     u29_21:
  2143  010D  2918               	goto	i1l134
  2144  010E                     u29_20:
  2145                           opt subtitle "HI-TECH Software Omniscient Code Generator (Lite mode) build 49521"
  2146                           
  2147  010E                     i1l1025:	
  2148                           opt subtitle "HI-TECH Software Omniscient Code Generator (Lite mode) build 49521"
  2149                           
  2150  010E  081A               	movf	(26),w	;volatile
  2151  010F  00F0               	movwf	(??_clear_usart_errors+0)+0
  2152  0110  0870               	movf	(??_clear_usart_errors+0)+0,w
  2153  0111  00F1               	movwf	(clear_usart_errors@dummy)
  2154                           opt subtitle "HI-TECH Software Omniscient Code Generator (Lite mode) build 49521"
  2155                           
  2156  0112                     i1l1027:	
  2157                           opt subtitle "HI-TECH Software Omniscient Code Generator (Lite mode) build 49521"
  2158  0112  1683               	bsf	status, 5	;RP0=1, select bank1
  2159  0113  1303               	bcf	status, 6	;RP1=0, select bank1
  2160  0114  1298               	bcf	(1221/8)^080h,(1221)&7	;volatile
  2161                           opt subtitle "HI-TECH Software Omniscient Code Generator (Lite mode) build 49521"
  2162                           
  2163  0115                     i1l1029:	
  2164                           opt subtitle "HI-TECH Software Omniscient Code Generator (Lite mode) build 49521"
  2165  0115  1698               	bsf	(1221/8)^080h,(1221)&7	;volatile
  2166  0116  2918               	goto	i1l134
  2167                           opt subtitle "HI-TECH Software Omniscient Code Generator (Lite mode) build 49521"
  2168                           
  2169  0117                     i1l133:	
  2170  0117  2918               	goto	i1l134
  2171                           opt subtitle "HI-TECH Software Omniscient Code Generator (Lite mode) build 49521"
  2172                           
  2173  0118                     i1l1031:	
  2174                           opt subtitle "HI-TECH Software Omniscient Code Generator (Lite mode) build 49521"
  2175                           
  2176                           opt pagewidth 120
  2177                           
  2178  0118                     i1l134:	
  2179  0118  0008               	return
  2180                           opt subtitle "HI-TECH Software Omniscient Code Generator (Lite mode) build 49521"
  2181                           
  2182  0119                     	__end_of_clear_usart_errors:
  2183                           opt subtitle "HI-TECH Software Omniscient Code Generator (Lite mode) build 49521"
  2184                           
  2185                           opt pagewidth 120
  2186  0000                     __ptext233:	;psect for function _clear_usart_errors
  2187                           opt subtitle "HI-TECH Software Omniscient Code Generator (Lite mode) build 49521"
  2188  007E                     	btemp set 07Eh
  2189                           opt subtitle "HI-TECH Software Omniscient Code Generator (Lite mode) build 49521"
  2190                           
  2191                           opt pagewidth 120
  2192  007E                     	wtemp0 set btemp


Data Sizes:
    Strings     0
    Constant    0
    Data        1
    BSS         0
    Persistent  0
    Stack       0

Auto Spaces:
    Space          Size  Autos    Used
    COMMON           14      7       7
    BANK0            80      6       7
    BANK1            80      0       0
    BANK3            96      0       0
    BANK2            96      0       0

Pointer List with Targets:

    None.

Critical Paths under _main in COMMON

    None.

Critical Paths under _isr in COMMON

    _get_USART_char->_clear_usart_errors

Critical Paths under _main in BANK0

    _main->_USART_Init

Critical Paths under _isr in BANK0

    None.

Critical Paths under _main in BANK1

    None.

Critical Paths under _isr in BANK1

    None.

Critical Paths under _main in BANK3

    None.

Critical Paths under _isr in BANK3

    None.

Critical Paths under _main in BANK2

    None.

Critical Paths under _isr in BANK2

    None.

Call Graph Tables:

 ---------------------------------------------------------------------------------
 (Depth) Function   	        Calls       Base Space   Used Autos Params    Refs
 ---------------------------------------------------------------------------------
 (0) _main                                                 4     0      4      22
                                              2 BANK0      4     0      4
                            _picInit
                         _USART_Init
                          _motorInit
 ---------------------------------------------------------------------------------
 (1) _picInit                                              0     0      0       0
 ---------------------------------------------------------------------------------
 (1) _USART_Init                                           2     0      2      22
                                              0 BANK0      2     0      2
                          _Set_SPBRG
 ---------------------------------------------------------------------------------
 (1) _motorInit                                            0     0      0       0
                            _pwmInit
 ---------------------------------------------------------------------------------
 (2) _Set_SPBRG                                            0     0      0       0
 ---------------------------------------------------------------------------------
 (2) _pwmInit                                              0     0      0       0
 ---------------------------------------------------------------------------------
 Estimated maximum stack depth 2
 ---------------------------------------------------------------------------------
 (Depth) Function   	        Calls       Base Space   Used Autos Params    Refs
 ---------------------------------------------------------------------------------
 (3) _isr                                                  5     5      0       1
                                              2 COMMON     5     5      0
                     _get_USART_char
 ---------------------------------------------------------------------------------
 (4) _get_USART_char                                       0     0      0       1
                 _clear_usart_errors
 ---------------------------------------------------------------------------------
 (5) _clear_usart_errors                                   2     2      0       1
                                              0 COMMON     2     2      0
 ---------------------------------------------------------------------------------
 Estimated maximum stack depth 5
 ---------------------------------------------------------------------------------

 Call Graph Graphs:

 _main (ROOT)
   _picInit
   _USART_Init
     _Set_SPBRG
   _motorInit
     _pwmInit

 _isr (ROOT)
   _get_USART_char
     _clear_usart_errors

 Address spaces:
Name               Size   Autos  Total    Cost      Usage
BANK3               60      0       0       9        0.0%
BITBANK3            60      0       0       8        0.0%
SFR3                 0      0       0       4        0.0%
BITSFR3              0      0       0       4        0.0%
BANK2               60      0       0      11        0.0%
BITBANK2            60      0       0      10        0.0%
SFR2                 0      0       0       5        0.0%
BITSFR2              0      0       0       5        0.0%
BANK1               50      0       0       7        0.0%
BITBANK1            50      0       0       6        0.0%
SFR1                 0      0       0       2        0.0%
BITSFR1              0      0       0       2        0.0%
BANK0               50      6       7       5        8.8%
BITBANK0            50      0       0       4        0.0%
SFR0                 0      0       0       1        0.0%
BITSFR0              0      0       0       1        0.0%
COMMON               E      7       7       1       50.0%
BITCOMMON            E      0       0       0        0.0%
CODE                 0      0       0       0        0.0%
DATA                 0      0      16      12        0.0%
ABS                  0      0       E       3        0.0%
NULL                 0      0       0       0        0.0%
STACK                0      0       8       2        0.0%
EEDATA             100      0       0       0        0.0%


Microchip Technology PIC Macro Assembler V1.12 build 49521 
Symbol Table                                                                                   Thu Jan  3 01:26:05 2013

                         l31 00AE                           l32 00B8                           l33 00BA  
                         l34 00BB                           l35 00BC                           l36 00BC  
                         l39 014E                           l92 0092                           l93 0095  
                         l94 0097                           l97 0065                           l98 0064  
                         l99 0039                          l100 0023                          l101 0063  
                        l102 0027                          l103 002B                          l104 002F  
                        l105 0033                          l106 0037                          l107 0065  
                        l157 00DD                          l186 012A                          l951 00B6  
                        l943 0098                          l961 0066                          l953 0145  
                        l945 009D                          l971 0081                          l963 0075  
                        l955 0149                          l947 00A8                          l981 0015  
                        l973 0084                          l965 007A                          l957 014C  
                        l949 00AE                          l991 002B                          l983 001B  
                        l975 008C                          l967 007D                          l959 014E  
                        l993 002F                          l985 0022                          l977 0119  
                        l969 0080                          l995 0033                          l987 0023  
                        l979 0125                          _GIE 005F                          l997 0038  
                        l989 0027                          l999 0039                          _RA0 0028  
                        _RA1 0029                          _RA2 002A                          _RA3 002B  
                        _RB5 0035                          u240 00B6                          u241 00B5  
                        u250 008C                          u251 008B                          u260 001B  
                        u261 001A                          u270 0021                          _PR2 0092  
                        u271 0020                          _RX9 00C6                          _TX9 04C6  
                        _isr 00DE                          fsr0 0004      clear_usart_errors@dummy 0071  
               __CFG_LVP$OFF 0000                         l1201 005E                         l1071 00D2  
                       l1073 00D3                         l1065 00BF                         l1075 00D6  
                       l1067 00C3                         l1069 00CF                         l1193 004A  
                       l1195 004F                         l1197 0054                         l1199 0059  
                       ?_isr 0070                         _BRGH 04C2                         _CREN 00C4  
                       _FERR 00C2                         _PEIE 005E                         _INTE 005C  
                       i1l27 00EF                         _RCIE 0465                         i1l28 00F1  
                       _RCIF 0065                         _OERR 00C1                         _SPEN 00C7  
                       _TXIE 0464                         _TXEN 04C5                         _TXIF 0064  
                       _SYNC 04C4                         _main 0098                         btemp 007E  
                       start 0012                __CFG_IESO$OFF 0000                        ??_isr 0072  
                      ?_main 0022                        _BRG16 0C3B                __CFG_WDTE$OFF 0000  
                      _ANSEL 0188                        _T2CON 0012                        i1l110 012B  
                      i1l111 0137                        i1l112 0139                        i1l132 010A  
                      i1l133 0117                        i1l134 0118                        _RCREG 001A  
                      _SPBRG 0099                        u35_20 0136                        u35_21 0135  
                      u28_20 0102                        u36_20 00E4                        u28_21 0101  
                      u36_21 00E3                        u29_20 010E                        u29_21 010D  
__size_of_clear_usart_errors 001D                        _TXREG 0019               __CFG_FCMEN$OFF 0000  
            __end_of_picInit 014F               __CFG_BOREN$OFF 0000                        pclath 000A  
            __end_of_pwmInit 00DE                        status 0003                        wtemp0 007E  
                ?_USART_Init 0020              __initialization 013A                 __end_of_main 00BF  
                     ??_main 0077                       _CCPR1L 0015                       _CCPR2L 001B  
                     _ANSELH 0189                       i1l1021 00FC                       i1l1031 0118  
                     i1l1023 0102                       i1l1025 010E                       i1l1027 0112  
                     i1l1029 0115                       i1l1081 0137                       i1l1083 0139  
                     i1l1091 00F0                       i1l1077 012B                       i1l1085 00DE  
                     i1l1079 0130                       i1l1087 00E4                       i1l1089 00EF  
                     _TMR2IE 0461                       _TMR2IF 0061                       _SPBRGH 009A  
                     _TRISA0 0428                       _TRISA1 0429                       _TRISA2 042A  
                     _TRISA3 042B                       _TRISC1 0439                       _TRISC2 043A  
                     _TRISB5 0435                       _TRISC6 043E                       _TRISC7 043F  
         __size_of_Set_SPBRG 0051                    ??_picInit 0077                       saved_w 007E  
        __size_of_USART_Init 0032                    ??_pwmInit 0077      __size_of_get_USART_char 000F  
    __end_of__initialization 0141               __pcstackCOMMON 0070                 __pidataBANK0 014F  
          __end_of_Set_SPBRG 0066                   __pmaintext 0098                   __pintentry 0004  
                    _CCP1CON 0017                      _CCP2CON 001D           __size_of_motorInit 0012  
               ??_USART_Init 0077   __end_of_clear_usart_errors 0119                      _command 0026  
                    _picInit 0145                 __size_of_isr 001E                      _pwmInit 00BF  
         __end_of_USART_Init 0098               _get_USART_char 012B         end_of_initialization 0141  
          __end_of_motorInit 012B       __end_of_get_USART_char 013A          start_initialization 013A  
                __end_of_isr 00FC              ?_get_USART_char 0070                    _Set_SPBRG 0015  
   __CFG_FOSC$INTRC_NOCLKOUT 0000                  __pdataBANK0 0026                __pcstackBANK0 0020  
                 ?_Set_SPBRG 0070                    __ptext230 00DE                    __ptext231 012B  
                  __ptext232 00FC                    __ptext233 0000                    __ptext225 0145  
                  __ptext226 0066                    __ptext227 0119                    __ptext228 0015  
                  __ptext229 00BF                     ?_picInit 0070                     ?_pwmInit 0070  
 USART_Init@receiveInterupts 0020           _clear_usart_errors 00FC            interrupt_function 0004  
        ?_clear_usart_errors 0070                    _motorInit 0119         ??_clear_usart_errors 0070  
                ??_Set_SPBRG 0077                   ?_motorInit 0070             ??_get_USART_char 0072  
           __size_of_picInit 000A            __CFG_BOR4V$BOR21V 0000             __size_of_pwmInit 001F  
              __size_of_main 0027                     main@argc 0022                     main@argv 0024  
                   intlevel1 0000                  ??_motorInit 0077                   _USART_Init 0066  
